Archive member included to satisfy reference by file (symbol)

build/cooja/mtype398.a(simEnvChange.o)
                              build/cooja/mtype398.o (simDontFallAsleep)
build/cooja/mtype398.a(cooja_mt.o)
                              build/cooja/mtype398.o (cooja_mt_start)
build/cooja/mtype398.a(cooja_mtarch.o)
                              build/cooja/mtype398.a(cooja_mt.o) (cooja_mtarch_start)
build/cooja/mtype398.a(rtimer-arch.o)
                              build/cooja/mtype398.o (rtimer_arch_check)
build/cooja/mtype398.a(beep.o)
                              build/cooja/mtype398.o (beep_interface)
build/cooja/mtype398.a(leds-arch.o)
                              build/cooja/mtype398.o (leds_interface)
build/cooja/mtype398.a(moteid.o)
                              build/cooja/mtype398.o (moteid_interface)
build/cooja/mtype398.a(pir-sensor.o)
                              build/cooja/mtype398.o (pir_interface)
build/cooja/mtype398.a(rs232.o)
                              build/cooja/mtype398.o (rs232_interface)
build/cooja/mtype398.a(vib-sensor.o)
                              build/cooja/mtype398.o (vib_interface)
build/cooja/mtype398.a(clock.o)
                              build/cooja/mtype398.o (clock_interface)
build/cooja/mtype398.a(cooja-log.o)
                              build/cooja/mtype398.o (simlog_interface)
build/cooja/mtype398.a(cfs-cooja.o)
                              build/cooja/mtype398.o (cfs_interface)
build/cooja/mtype398.a(cooja-radio.o)
                              build/cooja/mtype398.o (radio_interface)
build/cooja/mtype398.a(eeprom.o)
                              build/cooja/mtype398.o (eeprom_interface)
build/cooja/mtype398.a(random.o)
                              build/cooja/mtype398.a(moteid.o) (random_init)
build/cooja/mtype398.a(sensors.o)
                              build/cooja/mtype398.a(pir-sensor.o) (sensors_changed)
build/cooja/mtype398.a(leds.o)
                              device.o (leds_set)
build/cooja/mtype398.a(gpio-hal-arch.o)
                              build/cooja/mtype398.a(leds-arch.o) (gpio_hal_arch_register_pin_callback)
build/cooja/mtype398.a(buttons.o)
                              build/cooja/mtype398.o (button_interface)
build/cooja/mtype398.a(roller.o)
                              device.o (roller)
build/cooja/mtype398.a(brightness.o)
                              device.o (brightness)
build/cooja/mtype398.a(coap-blocking-a)
                              device.o (coap_blocking_request)
build/cooja/mtype398.a(coap-engine.o)
                              device.o (coap_activate_resource)
build/cooja/mtype398.a(coap-res-well-k)
                              build/cooja/mtype398.a(coap-engine.o) (res_well_known_core)
build/cooja/mtype398.a(coap-observe.o)
                              build/cooja/mtype398.a(coap-engine.o) (coap_remove_observer_by_mid)
build/cooja/mtype398.a(coap-uip.o)
                              build/cooja/mtype398.a(coap-observe.o) (coap_endpoint_copy)
build/cooja/mtype398.a(coap-timer.o)
                              build/cooja/mtype398.a(coap-engine.o) (coap_timer_set)
build/cooja/mtype398.a(coap-transactio)
                              build/cooja/mtype398.a(coap-blocking-a) (coap_send_transaction)
build/cooja/mtype398.a(coap.o)
                              build/cooja/mtype398.a(coap-engine.o) (coap_status_code)
build/cooja/mtype398.a(contiki-main.o)
                              build/cooja/mtype398.o (main)
build/cooja/mtype398.a(autostart.o)
                              build/cooja/mtype398.a(contiki-main.o) (autostart_start)
build/cooja/mtype398.a(ctimer.o)
                              build/cooja/mtype398.a(contiki-main.o) (ctimer_init)
build/cooja/mtype398.a(log.o)
                              build/cooja/mtype398.a(contiki-main.o) (curr_log_level_main)
build/cooja/mtype398.a(energest.o)
                              build/cooja/mtype398.a(contiki-main.o) (energest_init)
build/cooja/mtype398.a(etimer.o)
                              build/cooja/mtype398.a(contiki-main.o) (etimer_process)
build/cooja/mtype398.a(node-id.o)
                              build/cooja/mtype398.a(contiki-main.o) (node_id)
build/cooja/mtype398.a(rtimer.o)
                              build/cooja/mtype398.a(contiki-main.o) (rtimer_init)
build/cooja/mtype398.a(process.o)
                              build/cooja/mtype398.a(coap-blocking-a) (process_current)
build/cooja/mtype398.a(timer.o)
                              build/cooja/mtype398.a(etimer.o) (timer_set)
build/cooja/mtype398.a(list.o)
                              build/cooja/mtype398.a(coap-engine.o) (list_init)
build/cooja/mtype398.a(memb.o)
                              build/cooja/mtype398.a(coap-observe.o) (memb_alloc)
build/cooja/mtype398.a(button-hal.o)
                              build/cooja/mtype398.o (button_hal_init)
build/cooja/mtype398.a(serial-line.o)
                              build/cooja/mtype398.a(rs232.o) (serial_line_input_byte)
build/cooja/mtype398.a(gpio-hal.o)
                              build/cooja/mtype398.a(button-hal.o) (gpio_hal_register_handler)
build/cooja/mtype398.a(queuebuf.o)
                              build/cooja/mtype398.a(contiki-main.o) (queuebuf_init)
build/cooja/mtype398.a(packetbuf.o)
                              build/cooja/mtype398.a(cooja-radio.o) (packetbuf_clear)
build/cooja/mtype398.a(netstack.o)
                              build/cooja/mtype398.a(contiki-main.o) (netstack_init)
build/cooja/mtype398.a(linkaddr.o)
                              build/cooja/mtype398.a(contiki-main.o) (linkaddr_node_addr)
build/cooja/mtype398.a(csma.o)
                              build/cooja/mtype398.a(cooja-radio.o) (csma_driver)
build/cooja/mtype398.a(csma-output.o)
                              build/cooja/mtype398.a(csma.o) (csma_output_packet)
build/cooja/mtype398.a(uip-ds6.o)
                              build/cooja/mtype398.a(contiki-main.o) (uip_ds6_get_link_local)
build/cooja/mtype398.a(uip-udp-packet.)
                              build/cooja/mtype398.a(coap-uip.o) (uip_udp_packet_sendto)
build/cooja/mtype398.a(uip-ds6-route.o)
                              build/cooja/mtype398.a(uip-ds6.o) (uip_ds6_route_init)
build/cooja/mtype398.a(tcpip.o)
                              build/cooja/mtype398.a(coap-uip.o) (tcpip_event)
build/cooja/mtype398.a(uip6.o)
                              build/cooja/mtype398.a(contiki-main.o) (uip_lladdr)
build/cooja/mtype398.a(uip-ds6-nbr.o)
                              build/cooja/mtype398.a(uip-ds6.o) (uip_ds6_neighbors_init)
build/cooja/mtype398.a(uip-nd6.o)
                              build/cooja/mtype398.a(uip6.o) (uip_nd6_init)
build/cooja/mtype398.a(sicslowpan.o)
                              build/cooja/mtype398.a(contiki-main.o) (sicslowpan_driver)
build/cooja/mtype398.a(uiplib.o)
                              build/cooja/mtype398.a(coap-uip.o) (uiplib_ip6addrconv)
build/cooja/mtype398.a(rpl.o)
                              build/cooja/mtype398.a(coap-uip.o) (rpl_lite_driver)
build/cooja/mtype398.a(rpl-icmp6.o)
                              build/cooja/mtype398.a(rpl.o) (rpl_icmp6_init)
build/cooja/mtype398.a(rpl-dag-root.o)
                              build/cooja/mtype398.a(rpl.o) (rpl_dag_root_is_root)
build/cooja/mtype398.a(watchdog.o)
                              build/cooja/mtype398.a(contiki-main.o) (watchdog_init)
build/cooja/mtype398.a(int-master.o)
                              build/cooja/mtype398.a(button-hal.o) (int_master_read_and_disable)
build/cooja/mtype398.a(coap-timer-defa)
                              build/cooja/mtype398.a(coap-timer.o) (coap_timer_default_driver)
build/cooja/mtype398.a(stimer.o)
                              build/cooja/mtype398.a(uip-ds6.o) (stimer_set)
build/cooja/mtype398.a(ringbuf.o)
                              build/cooja/mtype398.a(serial-line.o) (ringbuf_init)
build/cooja/mtype398.a(assert.o)
                              build/cooja/mtype398.a(csma-output.o) (_xassert)
build/cooja/mtype398.a(nbr-table.o)
                              build/cooja/mtype398.a(uip-ds6-nbr.o) (nbr_table_register)
build/cooja/mtype398.a(link-stats.o)
                              build/cooja/mtype398.a(sicslowpan.o) (link_stats_packet_sent)
build/cooja/mtype398.a(mac-sequence.o)
                              build/cooja/mtype398.a(csma.o) (mac_sequence_is_duplicate)
build/cooja/mtype398.a(mac.o)
                              build/cooja/mtype398.a(csma-output.o) (mac_call_sent_callback)
build/cooja/mtype398.a(framer-802154.o)
                              build/cooja/mtype398.a(csma.o) (framer_802154)
build/cooja/mtype398.a(frame802154.o)
                              build/cooja/mtype398.a(framer-802154.o) (frame802154_get_pan_id)
build/cooja/mtype398.a(csma-security.o)
                              build/cooja/mtype398.a(csma-output.o) (csma_security_create_frame)
build/cooja/mtype398.a(uipbuf.o)
                              build/cooja/mtype398.a(tcpip.o) (uipbuf_clear)
build/cooja/mtype398.a(uip-icmp6.o)
                              build/cooja/mtype398.a(uip6.o) (uip_icmp6_input)
build/cooja/mtype398.a(uip-sr.o)
                              build/cooja/mtype398.a(rpl-dag-root.o) (uip_sr_num_nodes)
build/cooja/mtype398.a(uip-packetqueue)
                              build/cooja/mtype398.a(uip-ds6-nbr.o) (uip_packetqueue_new)
build/cooja/mtype398.a(rpl-nbr-policy.)
                              build/cooja/mtype398.a(nbr-table.o) (rpl_nbr_policy_find_removable)
build/cooja/mtype398.a(rpl-neighbor.o)
                              build/cooja/mtype398.a(rpl-icmp6.o) (rpl_neighbor_get_ipaddr)
build/cooja/mtype398.a(rpl-dag.o)
                              build/cooja/mtype398.a(rpl.o) (curr_instance)
build/cooja/mtype398.a(rpl-timers.o)
                              build/cooja/mtype398.a(rpl-dag.o) (rpl_timers_schedule_periodic_dis)
build/cooja/mtype398.a(rpl-ext-header.)
                              build/cooja/mtype398.a(rpl.o) (rpl_ext_header_srh_get_next_hop)
build/cooja/mtype398.a(rpl-mrhof.o)
                              build/cooja/mtype398.a(rpl-dag.o) (rpl_mrhof)
/usr/lib/gcc/i686-linux-gnu/5/libgcc.a(_udivdi3.o)
                              build/cooja/mtype398.a(coap-timer-defa) (__udivdi3)

Allocating common symbols
Common symbol       size              file

simButtonIsDown     0x1               build/cooja/mtype398.a(buttons.o)
simOutDataBuffer    0x7d              build/cooja/mtype398.a(cooja-radio.o)
uip_ds6_prefix_list
                    0x60              build/cooja/mtype398.a(uip-ds6.o)
linkaddr_node_addr  0x8               build/cooja/mtype398.a(linkaddr.o)
simSerialReceivingFlag
                    0x1               build/cooja/mtype398.a(rs232.o)
simEEPROMData       0x400             build/cooja/mtype398.a(eeprom.o)
periodic_timer      0x20              build/cooja/mtype398.a(link-stats.o)
simLoggedLength     0x4               build/cooja/mtype398.a(cooja-log.o)
simSerialReceivingLength
                    0x4               build/cooja/mtype398.a(rs232.o)
simEtimerPending    0x4               build/cooja/mtype398.a(simEnvChange.o)
uip_slen            0x2               build/cooja/mtype398.a(uip6.o)
uip_ds6_timer_periodic
                    0x10              build/cooja/mtype398.a(uip-ds6.o)
eb_per_time_source  0x18              build/cooja/mtype398.a(contiki-main.o)
unicast_per_neighbor_rpl_storing
                    0x18              build/cooja/mtype398.a(contiki-main.o)
simVibChanged       0x1               build/cooja/mtype398.a(vib-sensor.o)
simRtimerPending    0x4               build/cooja/mtype398.a(rtimer-arch.o)
button_hal_periodic_event
                    0x1               build/cooja/mtype398.a(button-hal.o)
uip_ds6_netif_addr_list_offset
                    0x1               build/cooja/mtype398.a(uip-ds6.o)
uip_lladdr          0x8               build/cooja/mtype398.a(uip6.o)
button_hal_press_event
                    0x1               build/cooja/mtype398.a(button-hal.o)
simProcessRunValue  0x4               build/cooja/mtype398.a(simEnvChange.o)
serial_line_event_message
                    0x1               build/cooja/mtype398.a(serial-line.o)
uip_appdata         0x4               build/cooja/mtype398.a(uip6.o)
referenceVar        0x4               build/cooja/mtype398.o
simCurrentTime      0x4               build/cooja/mtype398.a(clock.o)
simVibIsActive      0x1               build/cooja/mtype398.a(vib-sensor.o)
unicast_per_neighbor_rpl_ns
                    0x18              build/cooja/mtype398.a(contiki-main.o)
uip_ds6_if          0xf8              build/cooja/mtype398.a(uip-ds6.o)
uip_flags           0x1               build/cooja/mtype398.a(uip6.o)
uip_ds6_timer_ra    0x8               build/cooja/mtype398.a(uip-ds6.o)
default_common      0x18              build/cooja/mtype398.a(contiki-main.o)
simSerialReceivingData
                    0x800             build/cooja/mtype398.a(rs232.o)
simLoggedFlag       0x1               build/cooja/mtype398.a(cooja-log.o)
packetbuf_attrs     0x1a              build/cooja/mtype398.a(packetbuf.o)
uip_ds6_addr_size   0x1               build/cooja/mtype398.a(uip-ds6.o)
uip_aligned_buf     0x500             build/cooja/mtype398.a(uip6.o)
simRtimerCurrentTicks
                    0x8               build/cooja/mtype398.a(rtimer-arch.o)
simRandomSeed       0x4               build/cooja/mtype398.a(moteid.o)
rpl_multicast_addr  0x10              build/cooja/mtype398.a(rpl.o)
simLoggedData       0x2000            build/cooja/mtype398.a(cooja-log.o)
simEtimerNextExpirationTime
                    0x4               build/cooja/mtype398.a(simEnvChange.o)
uip_len             0x2               build/cooja/mtype398.a(uip6.o)
simButtonChanged    0x1               build/cooja/mtype398.a(buttons.o)
simRtimerNextExpirationTime
                    0x8               build/cooja/mtype398.a(rtimer-arch.o)
simPirIsActive      0x1               build/cooja/mtype398.a(pir-sensor.o)
simInDataBuffer     0x7d              build/cooja/mtype398.a(cooja-radio.o)
simPirChanged       0x1               build/cooja/mtype398.a(pir-sensor.o)
simBeeped           0x1               build/cooja/mtype398.a(beep.o)
tcpip_event         0x1               build/cooja/mtype398.a(tcpip.o)
uip_sappdata        0x4               build/cooja/mtype398.a(uip6.o)
sensors_event       0x1               build/cooja/mtype398.a(sensors.o)
uip_udp_conns       0x100             build/cooja/mtype398.a(uip6.o)
button_hal_release_event
                    0x1               build/cooja/mtype398.a(button-hal.o)
packetbuf_addrs     0x10              build/cooja/mtype398.a(packetbuf.o)
uip_udp_conn        0x4               build/cooja/mtype398.a(uip6.o)
simMoteIDChanged    0x1               build/cooja/mtype398.a(moteid.o)
sensors_flags       0x4               build/cooja/mtype398.o
curr_instance       0x164             build/cooja/mtype398.a(rpl-dag.o)
simMoteID           0x4               build/cooja/mtype398.a(moteid.o)
uip_conn            0x4               build/cooja/mtype398.a(uip6.o)

Discarded input sections

 .note.GNU-stack
                0x0000000000000000        0x0 /usr/lib/gcc/i686-linux-gnu/5/../../../i386-linux-gnu/crti.o
 .group         0x0000000000000000        0x8 /usr/lib/gcc/i686-linux-gnu/5/crtbeginS.o
 .group         0x0000000000000000        0x8 /usr/lib/gcc/i686-linux-gnu/5/crtbeginS.o
 .text.__x86.get_pc_thunk.bx
                0x0000000000000000        0x4 /usr/lib/gcc/i686-linux-gnu/5/crtbeginS.o
 .note.GNU-stack
                0x0000000000000000        0x0 /usr/lib/gcc/i686-linux-gnu/5/crtbeginS.o
 .note.GNU-stack
                0x0000000000000000        0x0 device.o
 .note.GNU-stack
                0x0000000000000000        0x0 build/cooja/mtype398.o
 .note.GNU-stack
                0x0000000000000000        0x0 build/cooja/mtype398.a(simEnvChange.o)
 .note.GNU-stack
                0x0000000000000000        0x0 build/cooja/mtype398.a(cooja_mt.o)
 .note.GNU-stack
                0x0000000000000000        0x0 build/cooja/mtype398.a(cooja_mtarch.o)
 .note.GNU-stack
                0x0000000000000000        0x0 build/cooja/mtype398.a(rtimer-arch.o)
 .note.GNU-stack
                0x0000000000000000        0x0 build/cooja/mtype398.a(beep.o)
 .note.GNU-stack
                0x0000000000000000        0x0 build/cooja/mtype398.a(leds-arch.o)
 .note.GNU-stack
                0x0000000000000000        0x0 build/cooja/mtype398.a(moteid.o)
 .note.GNU-stack
                0x0000000000000000        0x0 build/cooja/mtype398.a(pir-sensor.o)
 .note.GNU-stack
                0x0000000000000000        0x0 build/cooja/mtype398.a(rs232.o)
 .note.GNU-stack
                0x0000000000000000        0x0 build/cooja/mtype398.a(vib-sensor.o)
 .note.GNU-stack
                0x0000000000000000        0x0 build/cooja/mtype398.a(clock.o)
 .note.GNU-stack
                0x0000000000000000        0x0 build/cooja/mtype398.a(cooja-log.o)
 .note.GNU-stack
                0x0000000000000000        0x0 build/cooja/mtype398.a(cfs-cooja.o)
 .note.GNU-stack
                0x0000000000000000        0x0 build/cooja/mtype398.a(cooja-radio.o)
 .note.GNU-stack
                0x0000000000000000        0x0 build/cooja/mtype398.a(eeprom.o)
 .note.GNU-stack
                0x0000000000000000        0x0 build/cooja/mtype398.a(random.o)
 .note.GNU-stack
                0x0000000000000000        0x0 build/cooja/mtype398.a(sensors.o)
 .note.GNU-stack
                0x0000000000000000        0x0 build/cooja/mtype398.a(leds.o)
 .note.GNU-stack
                0x0000000000000000        0x0 build/cooja/mtype398.a(gpio-hal-arch.o)
 .note.GNU-stack
                0x0000000000000000        0x0 build/cooja/mtype398.a(buttons.o)
 .note.GNU-stack
                0x0000000000000000        0x0 build/cooja/mtype398.a(roller.o)
 .note.GNU-stack
                0x0000000000000000        0x0 build/cooja/mtype398.a(brightness.o)
 .note.GNU-stack
                0x0000000000000000        0x0 build/cooja/mtype398.a(coap-blocking-a)
 .note.GNU-stack
                0x0000000000000000        0x0 build/cooja/mtype398.a(coap-engine.o)
 .note.GNU-stack
                0x0000000000000000        0x0 build/cooja/mtype398.a(coap-res-well-k)
 .note.GNU-stack
                0x0000000000000000        0x0 build/cooja/mtype398.a(coap-observe.o)
 .note.GNU-stack
                0x0000000000000000        0x0 build/cooja/mtype398.a(coap-uip.o)
 .note.GNU-stack
                0x0000000000000000        0x0 build/cooja/mtype398.a(coap-timer.o)
 .note.GNU-stack
                0x0000000000000000        0x0 build/cooja/mtype398.a(coap-transactio)
 .note.GNU-stack
                0x0000000000000000        0x0 build/cooja/mtype398.a(coap.o)
 .note.GNU-stack
                0x0000000000000000        0x0 build/cooja/mtype398.a(contiki-main.o)
 .note.GNU-stack
                0x0000000000000000        0x0 build/cooja/mtype398.a(autostart.o)
 .note.GNU-stack
                0x0000000000000000        0x0 build/cooja/mtype398.a(ctimer.o)
 .note.GNU-stack
                0x0000000000000000        0x0 build/cooja/mtype398.a(log.o)
 .note.GNU-stack
                0x0000000000000000        0x0 build/cooja/mtype398.a(energest.o)
 .note.GNU-stack
                0x0000000000000000        0x0 build/cooja/mtype398.a(etimer.o)
 .note.GNU-stack
                0x0000000000000000        0x0 build/cooja/mtype398.a(node-id.o)
 .note.GNU-stack
                0x0000000000000000        0x0 build/cooja/mtype398.a(rtimer.o)
 .note.GNU-stack
                0x0000000000000000        0x0 build/cooja/mtype398.a(process.o)
 .note.GNU-stack
                0x0000000000000000        0x0 build/cooja/mtype398.a(timer.o)
 .note.GNU-stack
                0x0000000000000000        0x0 build/cooja/mtype398.a(list.o)
 .note.GNU-stack
                0x0000000000000000        0x0 build/cooja/mtype398.a(memb.o)
 .note.GNU-stack
                0x0000000000000000        0x0 build/cooja/mtype398.a(button-hal.o)
 .note.GNU-stack
                0x0000000000000000        0x0 build/cooja/mtype398.a(serial-line.o)
 .note.GNU-stack
                0x0000000000000000        0x0 build/cooja/mtype398.a(gpio-hal.o)
 .note.GNU-stack
                0x0000000000000000        0x0 build/cooja/mtype398.a(queuebuf.o)
 .note.GNU-stack
                0x0000000000000000        0x0 build/cooja/mtype398.a(packetbuf.o)
 .note.GNU-stack
                0x0000000000000000        0x0 build/cooja/mtype398.a(netstack.o)
 .note.GNU-stack
                0x0000000000000000        0x0 build/cooja/mtype398.a(linkaddr.o)
 .note.GNU-stack
                0x0000000000000000        0x0 build/cooja/mtype398.a(csma.o)
 .note.GNU-stack
                0x0000000000000000        0x0 build/cooja/mtype398.a(csma-output.o)
 .note.GNU-stack
                0x0000000000000000        0x0 build/cooja/mtype398.a(uip-ds6.o)
 .note.GNU-stack
                0x0000000000000000        0x0 build/cooja/mtype398.a(uip-udp-packet.)
 .note.GNU-stack
                0x0000000000000000        0x0 build/cooja/mtype398.a(uip-ds6-route.o)
 .note.GNU-stack
                0x0000000000000000        0x0 build/cooja/mtype398.a(tcpip.o)
 .note.GNU-stack
                0x0000000000000000        0x0 build/cooja/mtype398.a(uip6.o)
 .note.GNU-stack
                0x0000000000000000        0x0 build/cooja/mtype398.a(uip-ds6-nbr.o)
 .note.GNU-stack
                0x0000000000000000        0x0 build/cooja/mtype398.a(uip-nd6.o)
 .note.GNU-stack
                0x0000000000000000        0x0 build/cooja/mtype398.a(sicslowpan.o)
 .note.GNU-stack
                0x0000000000000000        0x0 build/cooja/mtype398.a(uiplib.o)
 .note.GNU-stack
                0x0000000000000000        0x0 build/cooja/mtype398.a(rpl.o)
 .note.GNU-stack
                0x0000000000000000        0x0 build/cooja/mtype398.a(rpl-icmp6.o)
 .note.GNU-stack
                0x0000000000000000        0x0 build/cooja/mtype398.a(rpl-dag-root.o)
 .note.GNU-stack
                0x0000000000000000        0x0 build/cooja/mtype398.a(watchdog.o)
 .note.GNU-stack
                0x0000000000000000        0x0 build/cooja/mtype398.a(int-master.o)
 .note.GNU-stack
                0x0000000000000000        0x0 build/cooja/mtype398.a(coap-timer-defa)
 .note.GNU-stack
                0x0000000000000000        0x0 build/cooja/mtype398.a(stimer.o)
 .note.GNU-stack
                0x0000000000000000        0x0 build/cooja/mtype398.a(ringbuf.o)
 .note.GNU-stack
                0x0000000000000000        0x0 build/cooja/mtype398.a(assert.o)
 .note.GNU-stack
                0x0000000000000000        0x0 build/cooja/mtype398.a(nbr-table.o)
 .note.GNU-stack
                0x0000000000000000        0x0 build/cooja/mtype398.a(link-stats.o)
 .note.GNU-stack
                0x0000000000000000        0x0 build/cooja/mtype398.a(mac-sequence.o)
 .note.GNU-stack
                0x0000000000000000        0x0 build/cooja/mtype398.a(mac.o)
 .note.GNU-stack
                0x0000000000000000        0x0 build/cooja/mtype398.a(framer-802154.o)
 .note.GNU-stack
                0x0000000000000000        0x0 build/cooja/mtype398.a(frame802154.o)
 .note.GNU-stack
                0x0000000000000000        0x0 build/cooja/mtype398.a(csma-security.o)
 .note.GNU-stack
                0x0000000000000000        0x0 build/cooja/mtype398.a(uipbuf.o)
 .note.GNU-stack
                0x0000000000000000        0x0 build/cooja/mtype398.a(uip-icmp6.o)
 .note.GNU-stack
                0x0000000000000000        0x0 build/cooja/mtype398.a(uip-sr.o)
 .note.GNU-stack
                0x0000000000000000        0x0 build/cooja/mtype398.a(uip-packetqueue)
 .note.GNU-stack
                0x0000000000000000        0x0 build/cooja/mtype398.a(rpl-nbr-policy.)
 .note.GNU-stack
                0x0000000000000000        0x0 build/cooja/mtype398.a(rpl-neighbor.o)
 .note.GNU-stack
                0x0000000000000000        0x0 build/cooja/mtype398.a(rpl-dag.o)
 .note.GNU-stack
                0x0000000000000000        0x0 build/cooja/mtype398.a(rpl-timers.o)
 .note.GNU-stack
                0x0000000000000000        0x0 build/cooja/mtype398.a(rpl-ext-header.)
 .note.GNU-stack
                0x0000000000000000        0x0 build/cooja/mtype398.a(rpl-mrhof.o)
 .note.GNU-stack
                0x0000000000000000        0x0 /usr/lib/gcc/i686-linux-gnu/5/libgcc.a(_udivdi3.o)
 .note.GNU-stack
                0x0000000000000000        0x0 /usr/lib/gcc/i686-linux-gnu/5/crtendS.o
 .note.GNU-stack
                0x0000000000000000        0x0 /usr/lib/gcc/i686-linux-gnu/5/../../../i386-linux-gnu/crtn.o

Memory Configuration

Name             Origin             Length             Attributes
*default*        0x0000000000000000 0xffffffffffffffff

Linker script and memory map

LOAD /usr/lib/gcc/i686-linux-gnu/5/../../../i386-linux-gnu/crti.o
LOAD /usr/lib/gcc/i686-linux-gnu/5/crtbeginS.o
LOAD device.o
LOAD build/cooja/mtype398.o
LOAD build/cooja/mtype398.a
LOAD /usr/lib/gcc/i686-linux-gnu/5/libgcc.a
LOAD /usr/lib/gcc/i686-linux-gnu/5/libgcc_s.so
LOAD /usr/lib/gcc/i686-linux-gnu/5/../../../i386-linux-gnu/libc.so
START GROUP
LOAD /lib/i386-linux-gnu/libc.so.6
LOAD /usr/lib/i386-linux-gnu/libc_nonshared.a
LOAD /lib/i386-linux-gnu/ld-linux.so.2
END GROUP
LOAD /usr/lib/gcc/i686-linux-gnu/5/libgcc.a
LOAD /usr/lib/gcc/i686-linux-gnu/5/libgcc_s.so
LOAD /usr/lib/gcc/i686-linux-gnu/5/crtendS.o
LOAD /usr/lib/gcc/i686-linux-gnu/5/../../../i386-linux-gnu/crtn.o
                0x0000000000000114                . = (0x0 + SIZEOF_HEADERS)

.note.gnu.build-id
                0x0000000000000114       0x24
 *(.note.gnu.build-id)
 .note.gnu.build-id
                0x0000000000000114       0x24 /usr/lib/gcc/i686-linux-gnu/5/../../../i386-linux-gnu/crti.o

.hash
 *(.hash)

.gnu.hash       0x0000000000000138     0x159c
 *(.gnu.hash)
 .gnu.hash      0x0000000000000138     0x159c /usr/lib/gcc/i686-linux-gnu/5/../../../i386-linux-gnu/crti.o

.dynsym         0x00000000000016d4     0x2ef0
 *(.dynsym)
 .dynsym        0x00000000000016d4     0x2ef0 /usr/lib/gcc/i686-linux-gnu/5/../../../i386-linux-gnu/crti.o

.dynstr         0x00000000000045c4     0x369f
 *(.dynstr)
 .dynstr        0x00000000000045c4     0x369f /usr/lib/gcc/i686-linux-gnu/5/../../../i386-linux-gnu/crti.o

.gnu.version    0x0000000000007c64      0x5de
 *(.gnu.version)
 .gnu.version   0x0000000000007c64      0x5de /usr/lib/gcc/i686-linux-gnu/5/../../../i386-linux-gnu/crti.o

.gnu.version_d  0x0000000000008244        0x0
 *(.gnu.version_d)
 .gnu.version_d
                0x0000000000008244        0x0 /usr/lib/gcc/i686-linux-gnu/5/../../../i386-linux-gnu/crti.o

.gnu.version_r  0x0000000000008244       0x40
 *(.gnu.version_r)
 .gnu.version_r
                0x0000000000008244       0x40 /usr/lib/gcc/i686-linux-gnu/5/../../../i386-linux-gnu/crti.o

.rel.dyn        0x0000000000008284     0x9390
 *(.rel.init)
 .rel.init      0x0000000000008284        0x0 /usr/lib/gcc/i686-linux-gnu/5/../../../i386-linux-gnu/crti.o
 *(.rel.text .rel.text.* .rel.gnu.linkonce.t.*)
 .rel.text      0x0000000000008284     0x89c0 /usr/lib/gcc/i686-linux-gnu/5/../../../i386-linux-gnu/crti.o
 *(.rel.fini)
 .rel.fini      0x0000000000010c44        0x0 /usr/lib/gcc/i686-linux-gnu/5/../../../i386-linux-gnu/crti.o
 *(.rel.rodata .rel.rodata.* .rel.gnu.linkonce.r.*)
 .rel.rodata    0x0000000000010c44      0x588 /usr/lib/gcc/i686-linux-gnu/5/../../../i386-linux-gnu/crti.o
 *(.rel.data.rel.ro .rel.data.rel.ro.* .rel.gnu.linkonce.d.rel.ro.*)
 *(.rel.data .rel.data.* .rel.gnu.linkonce.d.*)
 .rel.data.rel.local
                0x00000000000111cc        0x8 /usr/lib/gcc/i686-linux-gnu/5/../../../i386-linux-gnu/crti.o
 .rel.data      0x00000000000111d4      0x408 /usr/lib/gcc/i686-linux-gnu/5/../../../i386-linux-gnu/crti.o
 *(.rel.tdata .rel.tdata.* .rel.gnu.linkonce.td.*)
 *(.rel.tbss .rel.tbss.* .rel.gnu.linkonce.tb.*)
 *(.rel.ctors)
 *(.rel.dtors)
 *(.rel.got)
 .rel.got       0x00000000000115dc       0x28 /usr/lib/gcc/i686-linux-gnu/5/../../../i386-linux-gnu/crti.o
 *(.rel.bss .rel.bss.* .rel.gnu.linkonce.b.*)
 *(.rel.ifunc)
 .rel.ifunc     0x0000000000011604        0x0 /usr/lib/gcc/i686-linux-gnu/5/../../../i386-linux-gnu/crti.o
 .rel.fini_array
                0x0000000000011604        0x8 /usr/lib/gcc/i686-linux-gnu/5/../../../i386-linux-gnu/crti.o
 .rel.init_array
                0x000000000001160c        0x8 /usr/lib/gcc/i686-linux-gnu/5/../../../i386-linux-gnu/crti.o

.rel.plt        0x0000000000011614        0x0
 *(.rel.plt)
 .rel.plt       0x0000000000011614        0x0 /usr/lib/gcc/i686-linux-gnu/5/../../../i386-linux-gnu/crti.o
 *(.rel.iplt)

.init           0x0000000000011614       0x23
 *(SORT(.init))
 .init          0x0000000000011614       0x1e /usr/lib/gcc/i686-linux-gnu/5/../../../i386-linux-gnu/crti.o
                0x0000000000011614                _init
 .init          0x0000000000011632        0x5 /usr/lib/gcc/i686-linux-gnu/5/../../../i386-linux-gnu/crtn.o

.plt            0x0000000000011640       0x10
 *(.plt)
 .plt           0x0000000000011640       0x10 /usr/lib/gcc/i686-linux-gnu/5/../../../i386-linux-gnu/crti.o
 *(.iplt)

.plt.got        0x0000000000011650       0x10
 *(.plt.got)
 .plt.got       0x0000000000011650       0x10 /usr/lib/gcc/i686-linux-gnu/5/../../../i386-linux-gnu/crti.o

.text           0x0000000000011660    0x189a2
 *(.text.unlikely .text.*_unlikely .text.unlikely.*)
 .text.unlikely
                0x0000000000011660        0x0 /usr/lib/gcc/i686-linux-gnu/5/crtbeginS.o
 .text.unlikely
                0x0000000000011660        0x0 /usr/lib/gcc/i686-linux-gnu/5/libgcc.a(_udivdi3.o)
 *(.text.exit .text.exit.*)
 *(.text.startup .text.startup.*)
 *(.text.hot .text.hot.*)
 *(.text .stub .text.* .gnu.linkonce.t.*)
 .text          0x0000000000011660        0x0 /usr/lib/gcc/i686-linux-gnu/5/../../../i386-linux-gnu/crti.o
 .gnu.linkonce.t.__x86.get_pc_thunk.bx
                0x0000000000011660        0x4 /usr/lib/gcc/i686-linux-gnu/5/../../../i386-linux-gnu/crti.o
                0x0000000000011660                __x86.get_pc_thunk.bx
 *fill*         0x0000000000011664        0xc 
 .text          0x0000000000011670      0x11c /usr/lib/gcc/i686-linux-gnu/5/crtbeginS.o
 .text.__x86.get_pc_thunk.dx
                0x000000000001178c        0x4 /usr/lib/gcc/i686-linux-gnu/5/crtbeginS.o
                0x000000000001178c                __x86.get_pc_thunk.dx
 .text          0x0000000000011790      0x2b8 device.o
                0x0000000000011790                client_chunk_handler
 .text          0x0000000000011a48      0x283 build/cooja/mtype398.o
                0x0000000000011ada                platform_init_stage_one
                0x0000000000011aed                platform_init_stage_two
                0x0000000000011b00                platform_init_stage_three
                0x0000000000011b13                platform_main_loop
                0x0000000000011b86                Java_org_contikios_cooja_corecomm_Lib4_init
                0x0000000000011bbd                Java_org_contikios_cooja_corecomm_Lib4_getMemory
                0x0000000000011bf0                Java_org_contikios_cooja_corecomm_Lib4_setMemory
                0x0000000000011c50                Java_org_contikios_cooja_corecomm_Lib4_tick
                0x0000000000011cb8                Java_org_contikios_cooja_corecomm_Lib4_setReferenceAddress
 .text          0x0000000000011ccb       0x65 build/cooja/mtype398.a(simEnvChange.o)
                0x0000000000011ccb                doActionsBeforeTick
                0x0000000000011cfd                doActionsAfterTick
 .text          0x0000000000011d30       0x83 build/cooja/mtype398.a(cooja_mt.o)
                0x0000000000011d30                cooja_mt_start
                0x0000000000011d5a                cooja_mt_exec
                0x0000000000011d90                cooja_mt_yield
 .text          0x0000000000011db3       0xbe build/cooja/mtype398.a(cooja_mtarch.o)
                0x0000000000011db3                cooja_mtarch_start
                0x0000000000011e26                cooja_sw
                0x0000000000011e49                cooja_mtarch_exec
                0x0000000000011e66                cooja_mtarch_yield
 .text          0x0000000000011e71       0xc5 build/cooja/mtype398.a(rtimer-arch.o)
                0x0000000000011e71                rtimer_arch_init
                0x0000000000011e95                rtimer_arch_schedule
                0x0000000000011ec5                rtimer_arch_next
                0x0000000000011ed5                rtimer_arch_pending
                0x0000000000011edf                rtimer_arch_check
                0x0000000000011f26                rtimer_arch_now
 .text          0x0000000000011f36       0x81 build/cooja/mtype398.a(beep.o)
                0x0000000000011f36                beep_alarm
                0x0000000000011f43                beep_beep
                0x0000000000011f50                beep
                0x0000000000011f5d                beep_down
                0x0000000000011f6a                beep_on
                0x0000000000011f77                beep_off
                0x0000000000011f84                beep_spinup
                0x0000000000011f91                beep_quick
                0x0000000000011f9e                beep_long
 .text          0x0000000000011fb7       0x65 build/cooja/mtype398.a(leds-arch.o)
                0x0000000000011fca                leds_arch_init
 .text          0x000000000001201c       0x35 build/cooja/mtype398.a(moteid.o)
 .text          0x0000000000012051       0xb7 build/cooja/mtype398.a(pir-sensor.o)
 .text          0x0000000000012108      0x148 build/cooja/mtype398.a(rs232.o)
                0x0000000000012108                rs232_init
                0x000000000001210e                rs232_set_speed
                0x000000000001211d                rs232_set_input
                0x000000000001212b                rs232_send
                0x000000000001214f                rs232_print
                0x000000000001216b                slip_arch_writeb
 .text          0x0000000000012250       0xb7 build/cooja/mtype398.a(vib-sensor.o)
 .text          0x0000000000012307       0x38 build/cooja/mtype398.a(clock.o)
                0x0000000000012307                clock_init
                0x000000000001230d                clock_time
                0x0000000000012317                clock_seconds
                0x000000000001232d                clock_delay
 .text          0x000000000001233f      0x219 build/cooja/mtype398.a(cooja-log.o)
                0x000000000001233f                simlog_char
                0x0000000000012382                simlog
                0x00000000000123f8                log_message
                0x0000000000012429                log_set_putchar_with_slip
                0x0000000000012437                log_putchar
                0x00000000000124b2                log_puts
                0x00000000000124da                log_printf
 .text          0x0000000000012558      0x2b9 build/cooja/mtype398.a(cfs-cooja.o)
                0x0000000000012558                cfs_open
                0x00000000000125c1                cfs_close
                0x00000000000125ce                cfs_read
                0x0000000000012663                cfs_write
                0x000000000001273f                cfs_seek
                0x00000000000127c7                cfs_remove
                0x00000000000127eb                cfs_opendir
                0x00000000000127f5                cfs_readdir
                0x00000000000127ff                cfs_closedir
 .text          0x0000000000012811      0x620 build/cooja/mtype398.a(cooja-radio.o)
                0x0000000000012853                radio_set_channel
                0x0000000000012861                radio_set_txpower
                0x0000000000012879                radio_signal_strength_last
                0x0000000000012883                radio_signal_strength_current
                0x000000000001288d                radio_LQI
 .text          0x0000000000012e31       0xee build/cooja/mtype398.a(eeprom.o)
                0x0000000000012e31                eeprom_init
                0x0000000000012e37                eeprom_read
                0x0000000000012ea5                eeprom_write
 .text          0x0000000000012f1f       0x2d build/cooja/mtype398.a(random.o)
                0x0000000000012f1f                random_init
                0x0000000000012f3f                random_rand
 .text          0x0000000000012f4c      0x29c build/cooja/mtype398.a(sensors.o)
                0x0000000000012f87                sensors_first
                0x0000000000012f91                sensors_next
                0x0000000000012fab                sensors_changed
                0x0000000000012fdf                sensors_find
 .text          0x00000000000131e8      0x349 build/cooja/mtype398.a(leds.o)
                0x00000000000131e8                leds_init
                0x000000000001322f                leds_single_on
                0x000000000001328e                leds_single_off
                0x00000000000132ed                leds_single_toggle
                0x000000000001331f                leds_on
                0x00000000000133a1                leds_off
                0x0000000000013423                leds_toggle
                0x0000000000013478                leds_set
                0x00000000000134a4                leds_get
 .text          0x0000000000013531      0x343 build/cooja/mtype398.a(gpio-hal-arch.o)
                0x0000000000013531                gpio_hal_arch_register_pin_callback
                0x000000000001359d                gpio_hal_arch_init
                0x00000000000135e2                gpio_hal_arch_no_port_interrupt_enable
                0x0000000000013612                gpio_hal_arch_no_port_interrupt_disable
                0x0000000000013642                gpio_hal_arch_no_port_pin_cfg_set
                0x0000000000013667                gpio_hal_arch_no_port_pin_cfg_get
                0x000000000001368d                gpio_hal_arch_no_port_pin_set_input
                0x000000000001369f                gpio_hal_arch_no_port_pin_set_output
                0x00000000000136b1                gpio_hal_arch_no_port_set_pin
                0x00000000000136d2                gpio_hal_arch_no_port_clear_pin
                0x00000000000136f3                gpio_hal_arch_no_port_read_pin
                0x0000000000013719                gpio_hal_arch_no_port_write_pin
                0x0000000000013743                gpio_hal_arch_no_port_set_pins
                0x000000000001378a                gpio_hal_arch_no_port_clear_pins
                0x00000000000137d1                gpio_hal_arch_no_port_read_pins
                0x0000000000013814                gpio_hal_arch_no_port_write_pins
 .text          0x0000000000013874       0x89 build/cooja/mtype398.a(buttons.o)
 .text          0x00000000000138fd      0x38f build/cooja/mtype398.a(roller.o)
 .text          0x0000000000013c8c      0x29b build/cooja/mtype398.a(brightness.o)
                0x0000000000013c8c                generate_random_brightness
 .text          0x0000000000013f27      0x27b build/cooja/mtype398.a(coap-blocking-a)
                0x0000000000013f27                coap_blocking_request_callback
                0x0000000000013f51                coap_blocking_request
 .text          0x00000000000141a2      0xbea build/cooja/mtype398.a(coap-engine.o)
                0x0000000000014237                coap_add_handler
                0x0000000000014254                coap_remove_handler
                0x0000000000014271                coap_call_handlers
                0x0000000000014379                coap_receive
                0x0000000000014974                coap_engine_init
                0x00000000000149d2                coap_activate_resource
                0x0000000000014a7d                coap_get_first_resource
                0x0000000000014a96                coap_get_next_resource
 .text          0x0000000000014d8c      0x2d9 build/cooja/mtype398.a(coap-res-well-k)
 .text          0x0000000000015065      0x96a build/cooja/mtype398.a(coap-observe.o)
                0x000000000001517a                coap_remove_observer
                0x00000000000151aa                coap_remove_observer_by_client
                0x0000000000015212                coap_remove_observer_by_token
                0x00000000000152a5                coap_remove_observer_by_uri
                0x000000000001534c                coap_remove_observer_by_mid
                0x00000000000153c8                coap_notify_observers
                0x00000000000153e1                coap_notify_observers_sub
                0x000000000001584b                coap_observe_handler
                0x0000000000015966                coap_has_observers
 .text          0x00000000000159cf      0x733 build/cooja/mtype398.a(coap-uip.o)
                0x00000000000159cf                coap_endpoint_log
                0x0000000000015a55                coap_endpoint_print
                0x0000000000015adb                coap_endpoint_snprint
                0x0000000000015c0e                coap_endpoint_copy
                0x0000000000015c4b                coap_endpoint_cmp
                0x0000000000015d59                coap_endpoint_parse
                0x0000000000015f44                coap_endpoint_is_secure
                0x0000000000015f53                coap_endpoint_is_connected
                0x0000000000015f87                coap_endpoint_connect
                0x0000000000015fa3                coap_endpoint_disconnect
                0x0000000000015fa9                coap_databuf
                0x0000000000015fb3                coap_transport_init
                0x0000000000016003                coap_sendto
 .text          0x0000000000016102      0x324 build/cooja/mtype398.a(coap-timer.o)
                0x00000000000161ff                coap_timer_stop
                0x000000000001622a                coap_timer_set
                0x000000000001626d                coap_timer_reset
                0x00000000000162b0                coap_timer_time_to_next_expiration
                0x000000000001631c                coap_timer_run
                0x00000000000163e8                coap_timer_init
 .text          0x0000000000016426      0x2c6 build/cooja/mtype398.a(coap-transactio)
                0x000000000001648c                coap_new_transaction
                0x00000000000164f2                coap_send_transaction
                0x0000000000016653                coap_clear_transaction
                0x000000000001669b                coap_get_transaction_by_mid
 .text          0x00000000000166ec     0x1c53 build/cooja/mtype398.a(coap.o)
                0x0000000000016c59                coap_init_connection
                0x0000000000016c6d                coap_get_mid
                0x0000000000016c89                coap_init_message
                0x0000000000016cd2                coap_serialize_message
                0x0000000000017354                coap_parse_message
                0x00000000000179bb                coap_get_query_variable
                0x00000000000179fd                coap_get_post_variable
                0x0000000000017a41                coap_set_status_code
                0x0000000000017a66                coap_set_token
                0x0000000000017aad                coap_get_header_content_format
                0x0000000000017ade                coap_set_header_content_format
                0x0000000000017b01                coap_get_header_accept
                0x0000000000017b32                coap_set_header_accept
                0x0000000000017b55                coap_get_header_max_age
                0x0000000000017b86                coap_set_header_max_age
                0x0000000000017ba6                coap_get_header_etag
                0x0000000000017bd8                coap_set_header_etag
                0x0000000000017c2f                coap_get_header_if_match
                0x0000000000017c61                coap_set_header_if_match
                0x0000000000017cb8                coap_get_header_if_none_match
                0x0000000000017cd2                coap_set_header_if_none_match
                0x0000000000017ce9                coap_get_header_proxy_uri
                0x0000000000017d17                coap_set_header_proxy_uri
                0x0000000000017d54                coap_get_header_uri_host
                0x0000000000017d82                coap_set_header_uri_host
                0x0000000000017dbf                coap_get_header_uri_path
                0x0000000000017ded                coap_set_header_uri_path
                0x0000000000017e3a                coap_get_header_uri_query
                0x0000000000017e6e                coap_set_header_uri_query
                0x0000000000017ec4                coap_get_header_location_path
                0x0000000000017ef2                coap_set_header_location_path
                0x0000000000017f8b                coap_get_header_location_query
                0x0000000000017fb9                coap_set_header_location_query
                0x0000000000018006                coap_get_header_observe
                0x0000000000018035                coap_set_header_observe
                0x0000000000018055                coap_get_header_block2
                0x00000000000180c1                coap_set_header_block2
                0x0000000000018138                coap_get_header_block1
                0x00000000000181ad                coap_set_header_block1
                0x0000000000018228                coap_get_header_size2
                0x0000000000018258                coap_set_header_size2
                0x000000000001827b                coap_get_header_size1
                0x00000000000182ab                coap_set_header_size1
                0x00000000000182ce                coap_get_payload
                0x0000000000018308                coap_set_payload
 .text          0x000000000001833f      0x332 build/cooja/mtype398.a(contiki-main.o)
                0x000000000001833f                main
 .text          0x0000000000018671       0x92 build/cooja/mtype398.a(autostart.o)
                0x0000000000018671                autostart_start
                0x00000000000186bb                autostart_exit
 .text          0x0000000000018703      0x355 build/cooja/mtype398.a(ctimer.o)
                0x000000000001882b                ctimer_init
                0x000000000001885e                ctimer_set
                0x0000000000018884                ctimer_set_with_process
                0x0000000000018901                ctimer_reset
                0x0000000000018955                ctimer_restart
                0x00000000000189a9                ctimer_stop
                0x00000000000189f9                ctimer_expired
 .text          0x0000000000018a58      0x394 build/cooja/mtype398.a(log.o)
                0x0000000000018a58                log_6addr
                0x0000000000018aab                log_6addr_compact_snprint
                0x0000000000018b49                log_6addr_compact
                0x0000000000018b9c                log_lladdr
                0x0000000000018c0e                log_lladdr_compact
                0x0000000000018c76                log_set_level
                0x0000000000018d31                log_get_level
                0x0000000000018daa                log_level_to_str
 .text          0x0000000000018dec       0x1b build/cooja/mtype398.a(energest.o)
                0x0000000000018dec                energest_init
                0x0000000000018df2                energest_flush
                0x0000000000018df8                energest_get_total_time
 .text          0x0000000000018e07      0x43f build/cooja/mtype398.a(etimer.o)
                0x000000000001902b                etimer_request_poll
                0x00000000000190b4                etimer_set
                0x00000000000190dd                etimer_reset_with_new_interval
                0x000000000001910c                etimer_reset
                0x0000000000019132                etimer_restart
                0x0000000000019158                etimer_adjust
                0x0000000000019175                etimer_expired
                0x0000000000019188                etimer_expiration_time
                0x000000000001919a                etimer_start_time
                0x00000000000191a4                etimer_pending
                0x00000000000191b6                etimer_next_expiration_time
                0x00000000000191d0                etimer_stop
 .text          0x0000000000019246       0x25 build/cooja/mtype398.a(node-id.o)
                0x0000000000019246                node_id_init
 .text          0x000000000001926b       0xeb build/cooja/mtype398.a(rtimer.o)
                0x000000000001926b                rtimer_init
                0x0000000000019279                rtimer_set
                0x00000000000192f4                rtimer_run_next
 .text          0x0000000000019356      0x4fb build/cooja/mtype398.a(process.o)
                0x0000000000019356                process_alloc_event
                0x000000000001936b                process_start
                0x0000000000019545                process_exit
                0x0000000000019562                process_init
                0x00000000000196f7                process_run
                0x000000000001972a                process_nevents
                0x0000000000019745                process_post
                0x00000000000197d8                process_post_synch
                0x000000000001980d                process_poll
                0x000000000001983d                process_is_running
 .text          0x0000000000019851       0xb1 build/cooja/mtype398.a(timer.o)
                0x0000000000019851                timer_set
                0x000000000001986f                timer_reset
                0x000000000001989c                timer_restart
                0x00000000000198b1                timer_expired
                0x00000000000198de                timer_remaining
 .text          0x0000000000019902      0x28f build/cooja/mtype398.a(list.o)
                0x0000000000019902                list_init
                0x0000000000019911                list_head
                0x000000000001991b                list_copy
                0x000000000001992b                list_tail
                0x0000000000019961                list_add
                0x00000000000199ad                list_push
                0x00000000000199d9                list_chop
                0x0000000000019a43                list_pop
                0x0000000000019a6b                list_remove
                0x0000000000019ad3                list_length
                0x0000000000019b01                list_insert
                0x0000000000019b46                list_item_next
                0x0000000000019b5d                list_contains
 .text          0x0000000000019b91      0x1b5 build/cooja/mtype398.a(memb.o)
                0x0000000000019b91                memb_init
                0x0000000000019be6                memb_alloc
                0x0000000000019c49                memb_free
                0x0000000000019cc0                memb_inmemb
                0x0000000000019cff                memb_numfree
 .text          0x0000000000019d46      0x41c build/cooja/mtype398.a(button-hal.o)
                0x0000000000019ebf                button_hal_get_by_id
                0x0000000000019efd                button_hal_get_by_index
                0x0000000000019f29                button_hal_get_state
                0x0000000000019f7b                button_hal_init
 .text          0x000000000001a162      0x1f3 build/cooja/mtype398.a(serial-line.o)
                0x000000000001a162                serial_line_input_byte
                0x000000000001a320                serial_line_init
 .text          0x000000000001a355      0x168 build/cooja/mtype398.a(gpio-hal.o)
                0x000000000001a355                gpio_hal_register_handler
                0x000000000001a372                gpio_hal_event_handler
                0x000000000001a3ce                gpio_hal_init
                0x000000000001a3ed                gpio_hal_arch_port_toggle_pin
                0x000000000001a429                gpio_hal_arch_port_toggle_pins
                0x000000000001a457                gpio_hal_arch_no_port_toggle_pin
                0x000000000001a495                gpio_hal_arch_no_port_toggle_pins
 .text          0x000000000001a4bd      0x2e7 build/cooja/mtype398.a(queuebuf.o)
                0x000000000001a4c7                queuebuf_init
                0x000000000001a4f0                queuebuf_numfree
                0x000000000001a508                queuebuf_new_from_packetbuf
                0x000000000001a5a7                queuebuf_update_attr_from_packetbuf
                0x000000000001a5dc                queuebuf_update_from_packetbuf
                0x000000000001a62c                queuebuf_free
                0x000000000001a675                queuebuf_to_packetbuf
                0x000000000001a6e1                queuebuf_dataptr
                0x000000000001a71b                queuebuf_datalen
                0x000000000001a73e                queuebuf_addr
                0x000000000001a773                queuebuf_attr
                0x000000000001a79e                queuebuf_debug_print
 .text          0x000000000001a7a4      0x407 build/cooja/mtype398.a(packetbuf.o)
                0x000000000001a7a4                packetbuf_clear
                0x000000000001a7cf                packetbuf_copyfrom
                0x000000000001a81e                packetbuf_copyto
                0x000000000001a8b1                packetbuf_hdralloc
                0x000000000001a92d                packetbuf_hdrreduce
                0x000000000001a973                packetbuf_set_datalen
                0x000000000001a98d                packetbuf_dataptr
                0x000000000001a9aa                packetbuf_hdrptr
                0x000000000001a9b4                packetbuf_datalen
                0x000000000001a9c0                packetbuf_hdrlen
                0x000000000001a9d7                packetbuf_totlen
                0x000000000001a9ed                packetbuf_remaininglen
                0x000000000001aa00                packetbuf_attr_clear
                0x000000000001aa4c                packetbuf_attr_copyto
                0x000000000001aaa4                packetbuf_attr_copyfrom
                0x000000000001aafc                packetbuf_set_attr
                0x000000000001ab26                packetbuf_attr
                0x000000000001ab40                packetbuf_set_addr
                0x000000000001ab71                packetbuf_addr
                0x000000000001ab8e                packetbuf_holds_broadcast
 .text          0x000000000001abab       0xef build/cooja/mtype398.a(netstack.o)
                0x000000000001abab                netstack_process_ip_callback
                0x000000000001ac3c                netstack_ip_packet_processor_add
                0x000000000001ac5f                uip_ds6_ip_packet_processor_rm
                0x000000000001ac7c                netstack_init
 .text          0x000000000001ac9a       0x4f build/cooja/mtype398.a(linkaddr.o)
                0x000000000001ac9a                linkaddr_copy
                0x000000000001acb0                linkaddr_cmp
                0x000000000001acd3                linkaddr_set_node_addr
 .text          0x000000000001ace9      0x1f6 build/cooja/mtype398.a(csma.o)
 .text          0x000000000001aedf      0x95d build/cooja/mtype398.a(csma-output.o)
                0x000000000001b576                csma_output_packet
                0x000000000001b803                csma_output_init
 .text          0x000000000001b83c      0xc11 build/cooja/mtype398.a(uip-ds6.o)
                0x000000000001b83c                uip_ds6_default_prefix
                0x000000000001b846                uip_ds6_set_default_prefix
                0x000000000001b871                uip_ds6_init
                0x000000000001bad3                uip_ds6_periodic
                0x000000000001bb5a                uip_ds6_list_loop
                0x000000000001bc1a                uip_ds6_prefix_add
                0x000000000001bcc6                uip_ds6_prefix_rm
                0x000000000001bcd9                uip_ds6_prefix_lookup
                0x000000000001bd18                uip_ds6_is_addr_onlink
                0x000000000001bd8b                uip_ds6_addr_add
                0x000000000001beab                uip_ds6_addr_rm
                0x000000000001bf54                uip_ds6_addr_lookup
                0x000000000001bf8d                uip_ds6_get_link_local
                0x000000000001c00e                uip_ds6_get_global
                0x000000000001c08f                uip_ds6_maddr_add
                0x000000000001c0ef                uip_ds6_maddr_rm
                0x000000000001c102                uip_ds6_maddr_lookup
                0x000000000001c13b                uip_ds6_aaddr_add
                0x000000000001c19b                uip_ds6_aaddr_rm
                0x000000000001c1ae                uip_ds6_aaddr_lookup
                0x000000000001c1e7                uip_ds6_select_src
                0x000000000001c330                uip_ds6_set_addr_iid
                0x000000000001c35b                uip_ds6_set_lladdr_from_iid
                0x000000000001c384                get_match_length
                0x000000000001c415                uip_ds6_compute_reachable_time
 .text          0x000000000001c44d      0x128 build/cooja/mtype398.a(uip-udp-packet.)
                0x000000000001c44d                uip_udp_packet_send
                0x000000000001c4a8                uip_udp_packet_sendto
 .text          0x000000000001c575      0x35b build/cooja/mtype398.a(uip-ds6-route.o)
                0x000000000001c5c6                uip_ds6_route_init
                0x000000000001c5f0                uip_ds6_route_nexthop
                0x000000000001c5fa                uip_ds6_route_head
                0x000000000001c604                uip_ds6_route_next
                0x000000000001c60e                uip_ds6_route_is_nexthop
                0x000000000001c618                uip_ds6_route_num_routes
                0x000000000001c622                uip_ds6_route_lookup
                0x000000000001c62c                uip_ds6_route_add
                0x000000000001c63f                uip_ds6_route_rm
                0x000000000001c645                uip_ds6_route_rm_by_nexthop
                0x000000000001c64b                uip_ds6_defrt_head
                0x000000000001c664                uip_ds6_defrt_add
                0x000000000001c712                uip_ds6_defrt_rm
                0x000000000001c778                uip_ds6_defrt_lookup
                0x000000000001c7df                uip_ds6_defrt_choose
                0x000000000001c855                uip_ds6_defrt_periodic
 .text          0x000000000001c8d0      0x6f7 build/cooja/mtype398.a(tcpip.o)
                0x000000000001c8ea                tcpip_output
                0x000000000001c969                udp_attach
                0x000000000001c981                udp_new
                0x000000000001c9cb                udp_broadcast_new
                0x000000000001cb3d                tcpip_input
                0x000000000001cccd                tcpip_ipv6_output
                0x000000000001cec1                tcpip_poll_udp
                0x000000000001cedf                tcpip_uipcall
 .text          0x000000000001cfc7     0x1205 build/cooja/mtype398.a(uip6.o)
                0x000000000001d076                uip_chksum
                0x000000000001d14d                uip_icmp6chksum
                0x000000000001d162                uip_udpchksum
                0x000000000001d177                uip_init
                0x000000000001d1c0                uip_remove_ext_hdr
                0x000000000001d29a                uip_udp_new
                0x000000000001d5ae                uip_process
                0x000000000001e0a6                uip_htons
                0x000000000001e0c8                uip_htonl
                0x000000000001e106                uip_send
 .text          0x000000000001e1cc      0x369 build/cooja/mtype398.a(uip-ds6-nbr.o)
                0x000000000001e1cc                uip_ds6_neighbors_init
                0x000000000001e1f0                uip_ds6_nbr_add
                0x000000000001e276                uip_ds6_nbr_rm
                0x000000000001e2c1                uip_ds6_nbr_update_ll
                0x000000000001e3af                uip_ds6_nbr_get_ipaddr
                0x000000000001e3c4                uip_ds6_nbr_get_ll
                0x000000000001e3e0                uip_ds6_nbr_num
                0x000000000001e429                uip_ds6_nbr_head
                0x000000000001e442                uip_ds6_nbr_next
                0x000000000001e45e                uip_ds6_nbr_lookup
                0x000000000001e4b6                uip_ds6_nbr_ll_lookup
                0x000000000001e4d2                uip_ds6_nbr_ipaddr_from_lladdr
                0x000000000001e4fb                uip_ds6_nbr_lladdr_from_ipaddr
                0x000000000001e52f                uip_ds6_link_callback
 .text          0x000000000001e535      0x6a7 build/cooja/mtype398.a(uip-nd6.o)
                0x000000000001ebc3                uip_nd6_init
 .text          0x000000000001ebdc     0x2c17 build/cooja/mtype398.a(sicslowpan.o)
                0x000000000001f1e3                netstack_sniffer_add
                0x000000000001f1f1                netstack_sniffer_remove
                0x00000000000217c7                sicslowpan_init
                0x00000000000217e9                sicslowpan_get_last_rssi
 .text          0x00000000000217f3      0x4d1 build/cooja/mtype398.a(uiplib.o)
                0x00000000000217f3                uiplib_ip6addrconv
                0x00000000000219ab                uiplib_ip4addrconv
                0x0000000000021a6e                uiplib_ipaddr_print
                0x0000000000021ac1                uiplib_ipaddr_snprint
 .text          0x0000000000021cc4      0x4c9 build/cooja/mtype398.a(rpl.o)
                0x0000000000021cc4                rpl_lollipop_greater_than
                0x0000000000021d1e                rpl_get_global_address
                0x0000000000021e16                rpl_link_callback
                0x0000000000021e5a                rpl_has_joined
                0x0000000000021e7f                rpl_is_reachable
                0x0000000000021f00                rpl_reset_prefix
                0x0000000000021f6a                rpl_set_prefix_from_addr
                0x000000000002204f                rpl_set_prefix
                0x0000000000022169                rpl_set_leaf_only
                0x0000000000022181                rpl_get_leaf_only
 .text          0x000000000002218d     0x138c build/cooja/mtype398.a(rpl-icmp6.o)
                0x00000000000222b2                rpl_icmp6_update_nbr_table
                0x000000000002233b                rpl_icmp6_dis_output
                0x0000000000022981                rpl_icmp6_dio_output
                0x000000000002317f                rpl_icmp6_dao_output
                0x0000000000023460                rpl_icmp6_dao_ack_output
                0x00000000000234d0                rpl_icmp6_init
 .text          0x0000000000023519      0x264 build/cooja/mtype398.a(rpl-dag-root.o)
                0x0000000000023519                rpl_dag_root_print_links
                0x0000000000023645                rpl_dag_root_set_prefix
                0x0000000000023671                rpl_dag_root_start
                0x000000000002374e                rpl_dag_root_is_root
 .text          0x000000000002377d       0x30 build/cooja/mtype398.a(watchdog.o)
                0x000000000002377d                watchdog_init
                0x0000000000023783                watchdog_start
                0x0000000000023789                watchdog_periodic
                0x00000000000237a1                watchdog_stop
                0x00000000000237a7                watchdog_reboot
 .text          0x00000000000237ad       0x4a build/cooja/mtype398.a(int-master.o)
                0x00000000000237ad                int_master_enable
                0x00000000000237bd                int_master_read_and_disable
                0x00000000000237da                int_master_status_set
                0x00000000000237e8                int_master_is_enabled
 .text          0x00000000000237f7      0x226 build/cooja/mtype398.a(coap-timer-defa)
 .text          0x0000000000023a1d       0xc7 build/cooja/mtype398.a(stimer.o)
                0x0000000000023a1d                stimer_set
                0x0000000000023a3b                stimer_reset
                0x0000000000023a68                stimer_restart
                0x0000000000023a7d                stimer_expired
                0x0000000000023aa8                stimer_remaining
                0x0000000000023acc                stimer_elapsed
 .text          0x0000000000023ae4      0x156 build/cooja/mtype398.a(ringbuf.o)
                0x0000000000023ae4                ringbuf_init
                0x0000000000023b16                ringbuf_put
                0x0000000000023b94                ringbuf_get
                0x0000000000023c01                ringbuf_size
                0x0000000000023c13                ringbuf_elements
 .text          0x0000000000023c3a       0x1f build/cooja/mtype398.a(assert.o)
                0x0000000000023c3a                _xassert
 .text          0x0000000000023c59      0x79b build/cooja/mtype398.a(nbr-table.o)
                0x00000000000240d2                nbr_table_register
                0x000000000002413f                nbr_table_is_registered
                0x000000000002417a                nbr_table_head
                0x00000000000241d5                nbr_table_next
                0x0000000000024236                nbr_table_add_lladdr
                0x0000000000024310                nbr_table_get_from_lladdr
                0x000000000002435c                nbr_table_remove
                0x0000000000024394                nbr_table_lock
                0x00000000000243ae                nbr_table_unlock
                0x00000000000243c8                nbr_table_get_lladdr
 .text          0x00000000000243f4      0x3a5 build/cooja/mtype398.a(link-stats.o)
                0x00000000000243f4                link_stats_from_lladdr
                0x0000000000024410                link_stats_get_lladdr
                0x000000000002442c                link_stats_is_fresh
                0x0000000000024468                guess_etx_from_rssi
                0x00000000000244e4                link_stats_packet_sent
                0x0000000000024604                link_stats_input_callback
                0x0000000000024714                link_stats_reset
                0x0000000000024764                link_stats_init
 .text          0x0000000000024799      0x187 build/cooja/mtype398.a(mac-sequence.o)
                0x0000000000024799                mac_sequence_is_duplicate
                0x0000000000024839                mac_sequence_register_seqno
 .text          0x0000000000024920       0x23 build/cooja/mtype398.a(mac.o)
                0x0000000000024920                mac_call_sent_callback
 .text          0x0000000000024943      0x432 build/cooja/mtype398.a(framer-802154.o)
                0x0000000000024ad2                framer_802154_setup_params
 .text          0x0000000000024d75      0xb6f build/cooja/mtype398.a(frame802154.o)
                0x0000000000024da6                frame802154_get_pan_id
                0x0000000000024db2                frame802154_set_pan_id
                0x0000000000024dcc                frame802154_has_panid
                0x0000000000024f7b                frame802154_check_dest_panid
                0x0000000000025003                frame802154_is_broadcast_addr
                0x0000000000025050                frame802154_extract_linkaddr
                0x00000000000252b5                frame802154_hdrlen
                0x0000000000025328                frame802154_create_fcf
                0x00000000000253e0                frame802154_create
                0x0000000000025555                frame802154_parse_fcf
                0x0000000000025637                frame802154_parse
 .text          0x00000000000258e4       0x2d build/cooja/mtype398.a(csma-security.o)
                0x00000000000258e4                csma_security_create_frame
                0x0000000000025902                csma_security_parse_frame
 .text          0x0000000000025911      0x4e4 build/cooja/mtype398.a(uipbuf.o)
                0x0000000000025911                uipbuf_clear
                0x0000000000025938                uipbuf_add_ext_hdr
                0x00000000000259b8                uipbuf_set_len
                0x00000000000259e5                uipbuf_set_len_field
                0x0000000000025a11                uipbuf_get_len_field
                0x0000000000025a31                uipbuf_get_next_header
                0x0000000000025b63                uipbuf_get_last_header
                0x0000000000025bdc                uipbuf_search_header
                0x0000000000025c92                uipbuf_get_attr
                0x0000000000025cb9                uipbuf_set_attr
                0x0000000000025cf0                uipbuf_set_default_attr
                0x0000000000025d27                uipbuf_clear_attr
                0x0000000000025d4b                uipbuf_set_attr_flag
                0x0000000000025d6c                uipbuf_clr_attr_flag
                0x0000000000025d93                uipbuf_is_attr_flag
                0x0000000000025db7                uipbuf_init
 .text          0x0000000000025df5      0x73f build/cooja/mtype398.a(uip-icmp6.o)
                0x0000000000025e6a                uip_icmp6_input
                0x0000000000025ec1                uip_icmp6_register_input_handler
                0x0000000000026014                uip_icmp6_error_output
                0x00000000000262c5                uip_icmp6_send
                0x00000000000264bc                uip_icmp6_echo_reply_callback_add
                0x00000000000264ee                uip_icmp6_echo_reply_callback_rm
                0x000000000002650b                uip_icmp6_init
 .text          0x0000000000026534      0x69b build/cooja/mtype398.a(uip-sr.o)
                0x0000000000026534                uip_sr_num_nodes
                0x00000000000265c2                uip_sr_get_node
                0x0000000000026619                uip_sr_is_addr_reachable
                0x00000000000266c7                uip_sr_expire_parent
                0x0000000000026710                uip_sr_update_node
                0x0000000000026840                uip_sr_init
                0x0000000000026874                uip_sr_node_head
                0x000000000002688d                uip_sr_node_next
                0x00000000000268a3                uip_sr_periodic
                0x00000000000269a9                uip_sr_free_all
                0x0000000000026a19                uip_sr_link_snprint
 .text          0x0000000000026bcf      0x146 build/cooja/mtype398.a(uip-packetqueue)
                0x0000000000026bfd                uip_packetqueue_new
                0x0000000000026c0c                uip_packetqueue_alloc
                0x0000000000026c67                uip_packetqueue_free
                0x0000000000026cae                uip_packetqueue_buf
                0x0000000000026ccb                uip_packetqueue_buflen
                0x0000000000026cec                uip_packetqueue_set_buflen
 .text          0x0000000000026d15      0x1b0 build/cooja/mtype398.a(rpl-nbr-policy.)
                0x0000000000026e82                rpl_nbr_policy_find_removable
 .text          0x0000000000026ec5      0x915 build/cooja/mtype398.a(rpl-neighbor.o)
                0x0000000000026f41                rpl_neighbor_snprint
                0x00000000000271f4                rpl_neighbor_print_list
                0x00000000000272a9                rpl_neighbor_count
                0x0000000000027350                rpl_neighbor_get_from_lladdr
                0x000000000002736c                rpl_neighbor_is_acceptable_parent
                0x00000000000273a0                rpl_neighbor_get_link_metric
                0x00000000000273d4                rpl_neighbor_rank_via_nbr
                0x0000000000027408                rpl_neighbor_get_lladdr
                0x0000000000027424                rpl_neighbor_get_ipaddr
                0x000000000002744b                rpl_neighbor_get_link_stats
                0x0000000000027472                rpl_neighbor_is_fresh
                0x0000000000027499                rpl_neighbor_is_reachable
                0x00000000000274e4                rpl_neighbor_is_parent
                0x000000000002750e                rpl_neighbor_set_preferred_parent
                0x00000000000275a5                rpl_neighbor_remove_all
                0x0000000000027601                rpl_neighbor_get_from_ipaddr
                0x000000000002770f                rpl_neighbor_select_best
                0x00000000000277bb                rpl_neighbor_init
 .text          0x00000000000277da      0xe69 build/cooja/mtype398.a(rpl-dag.o)
                0x00000000000277da                rpl_dag_state_to_str
                0x0000000000027819                rpl_dag_get_root_ipaddr
                0x0000000000027861                rpl_dag_leave
                0x00000000000278ea                rpl_dag_poison_and_leave
                0x0000000000027902                rpl_dag_periodic
                0x000000000002798a                rpl_is_addr_in_our_dag
                0x00000000000279ce                rpl_get_default_instance
                0x00000000000279ea                rpl_get_any_dag
                0x0000000000027a43                rpl_refresh_routes
                0x0000000000027a83                rpl_global_repair
                0x0000000000027b1c                rpl_local_repair
                0x0000000000027b66                rpl_dag_ready_to_advertise
                0x0000000000027ba9                rpl_dag_update_state
                0x00000000000282d6                rpl_process_dio
                0x0000000000028354                rpl_process_dis
                0x0000000000028399                rpl_process_dao
                0x0000000000028428                rpl_process_dao_ack
                0x00000000000284bf                rpl_process_hbh
                0x000000000002850f                rpl_dag_init_root
                0x0000000000028623                rpl_dag_init
 .text          0x0000000000028643      0x9e7 build/cooja/mtype398.a(rpl-timers.o)
                0x0000000000028643                rpl_timers_schedule_periodic_dis
                0x0000000000028791                rpl_timers_dio_reset
                0x000000000002889f                rpl_timers_schedule_unicast_dio
                0x00000000000289f3                rpl_timers_schedule_dao
                0x0000000000028ab2                rpl_timers_schedule_dao_ack
                0x0000000000028b38                rpl_timers_notify_dao_ack
                0x0000000000028b96                get_probing_delay
                0x0000000000028bca                get_probing_target
                0x0000000000028db4                rpl_schedule_probing
                0x0000000000028de2                rpl_schedule_probing_now
                0x0000000000028e4c                rpl_timers_unschedule_leaving
                0x0000000000028e84                rpl_timers_schedule_leaving
                0x0000000000028ec5                rpl_timers_init
                0x0000000000028f55                rpl_timers_stop_dag_timers
                0x0000000000028fce                rpl_timers_unschedule_state_update
                0x0000000000028ff2                rpl_timers_schedule_state_update
 .text          0x000000000002902a      0xb8e build/cooja/mtype398.a(rpl-ext-header.)
                0x000000000002902a                rpl_ext_header_srh_get_next_hop
                0x0000000000029111                rpl_ext_header_srh_update
                0x000000000002967d                rpl_ext_header_hbh_update
                0x000000000002997d                rpl_ext_header_update
                0x0000000000029a06                rpl_ext_header_remove
 .text          0x0000000000029bb8      0x31b build/cooja/mtype398.a(rpl-mrhof.o)
 *fill*         0x0000000000029ed3        0xd 
 .text          0x0000000000029ee0      0x122 /usr/lib/gcc/i686-linux-gnu/5/libgcc.a(_udivdi3.o)
                0x0000000000029ee0                __udivdi3
 .text          0x000000000002a002        0x0 /usr/lib/gcc/i686-linux-gnu/5/crtendS.o
 .text          0x000000000002a002        0x0 /usr/lib/gcc/i686-linux-gnu/5/../../../i386-linux-gnu/crtn.o
 *(.gnu.warning)

.fini           0x000000000002a004       0x14
 *(SORT(.fini))
 .fini          0x000000000002a004        0xf /usr/lib/gcc/i686-linux-gnu/5/../../../i386-linux-gnu/crti.o
                0x000000000002a004                _fini
 .fini          0x000000000002a013        0x5 /usr/lib/gcc/i686-linux-gnu/5/../../../i386-linux-gnu/crtn.o
                [!provide]                        PROVIDE (__etext, .)
                [!provide]                        PROVIDE (_etext, .)
                [!provide]                        PROVIDE (etext, .)

.rodata         0x000000000002a020      0xc6b
 *(.rodata .rodata.* .gnu.linkonce.r.*)
 .rodata        0x000000000002a020       0xb8 device.o
                0x000000000002a030                autostart_processes
 .rodata        0x000000000002a0d8        0x8 build/cooja/mtype398.a(beep.o)
                0x000000000002a0d8                beep_interface
 .rodata        0x000000000002a0e0        0xe build/cooja/mtype398.a(leds-arch.o)
                0x000000000002a0e0                leds_interface
                0x000000000002a0e8                leds_arch_leds
 *fill*         0x000000000002a0ee        0x2 
 .rodata        0x000000000002a0f0        0x8 build/cooja/mtype398.a(moteid.o)
                0x000000000002a0f0                moteid_interface
 .rodata        0x000000000002a0f8       0x1c build/cooja/mtype398.a(pir-sensor.o)
                0x000000000002a0f8                pir_interface
                0x000000000002a104                pir_sensor
 .rodata        0x000000000002a114        0xe build/cooja/mtype398.a(rs232.o)
                0x000000000002a114                rs232_interface
 *fill*         0x000000000002a122        0x2 
 .rodata        0x000000000002a124       0x24 build/cooja/mtype398.a(vib-sensor.o)
                0x000000000002a124                vib_interface
                0x000000000002a138                vib_sensor
 .rodata        0x000000000002a148        0x8 build/cooja/mtype398.a(clock.o)
                0x000000000002a148                clock_interface
 .rodata        0x000000000002a150        0x8 build/cooja/mtype398.a(cooja-log.o)
                0x000000000002a150                simlog_interface
 .rodata        0x000000000002a158       0x2f build/cooja/mtype398.a(cfs-cooja.o)
                0x000000000002a158                cfs_interface
 *fill*         0x000000000002a187       0x19 
 .rodata        0x000000000002a1a0       0xb8 build/cooja/mtype398.a(cooja-radio.o)
                0x000000000002a1a0                radio_interface
                0x000000000002a220                cooja_radio_driver
 .rodata        0x000000000002a258        0x8 build/cooja/mtype398.a(eeprom.o)
                0x000000000002a258                eeprom_interface
 .rodata        0x000000000002a260        0x8 build/cooja/mtype398.a(sensors.o)
 .rodata        0x000000000002a268       0x2c build/cooja/mtype398.a(buttons.o)
                0x000000000002a268                button_interface
                0x000000000002a27c                button_hal_button_count
                0x000000000002a284                button_sensor
 .rodata        0x000000000002a294      0x133 build/cooja/mtype398.a(roller.o)
 *fill*         0x000000000002a3c7        0x1 
 .rodata        0x000000000002a3c8      0x115 build/cooja/mtype398.a(brightness.o)
 .rodata        0x000000000002a4dd       0x41 build/cooja/mtype398.a(coap-engine.o)
 .rodata        0x000000000002a51e       0x19 build/cooja/mtype398.a(coap-res-well-k)
 .rodata        0x000000000002a537       0x11 build/cooja/mtype398.a(coap-observe.o)
 .rodata        0x000000000002a548       0x35 build/cooja/mtype398.a(coap-uip.o)
 *fill*         0x000000000002a57d        0x3 
 .rodata        0x000000000002a580      0x1ac build/cooja/mtype398.a(coap.o)
 .rodata        0x000000000002a72c       0xf4 build/cooja/mtype398.a(contiki-main.o)
 .rodata        0x000000000002a820        0xf build/cooja/mtype398.a(ctimer.o)
 *fill*         0x000000000002a82f        0x1 
 .rodata        0x000000000002a830       0xc4 build/cooja/mtype398.a(log.o)
 .rodata        0x000000000002a8f4        0xc build/cooja/mtype398.a(etimer.o)
 .rodata        0x000000000002a900       0x13 build/cooja/mtype398.a(button-hal.o)
 .rodata        0x000000000002a913        0xe build/cooja/mtype398.a(serial-line.o)
 *fill*         0x000000000002a921        0x3 
 .rodata        0x000000000002a924        0x8 build/cooja/mtype398.a(linkaddr.o)
                0x000000000002a924                linkaddr_null
 .rodata        0x000000000002a92c       0x24 build/cooja/mtype398.a(csma.o)
                0x000000000002a934                csma_driver
 .rodata        0x000000000002a950       0x27 build/cooja/mtype398.a(csma-output.o)
 *fill*         0x000000000002a977        0x1 
 .rodata        0x000000000002a978       0x4d build/cooja/mtype398.a(uip-ds6-route.o)
 .rodata        0x000000000002a9c5        0xd build/cooja/mtype398.a(tcpip.o)
 *fill*         0x000000000002a9d2        0x2 
 .rodata        0x000000000002a9d4       0x30 build/cooja/mtype398.a(sicslowpan.o)
                0x000000000002a9d4                unc_llconf
                0x000000000002a9d8                unc_ctxconf
                0x000000000002a9dc                unc_mxconf
                0x000000000002a9e0                llprefix
                0x000000000002a9f4                sicslowpan_driver
 .rodata        0x000000000002aa04       0x2d build/cooja/mtype398.a(uiplib.o)
 *fill*         0x000000000002aa31        0xf 
 .rodata        0x000000000002aa40       0x74 build/cooja/mtype398.a(rpl.o)
                0x000000000002aa60                rpl_lite_driver
 .rodata        0x000000000002aab4       0x20 build/cooja/mtype398.a(coap-timer-defa)
                0x000000000002aac8                coap_timer_default_driver
 .rodata        0x000000000002aad4       0x25 build/cooja/mtype398.a(assert.o)
 *fill*         0x000000000002aaf9        0x3 
 .rodata        0x000000000002aafc        0xc build/cooja/mtype398.a(framer-802154.o)
                0x000000000002aafc                framer_802154
 .rodata        0x000000000002ab08       0x44 build/cooja/mtype398.a(uip-sr.o)
 .rodata        0x000000000002ab4c       0x58 build/cooja/mtype398.a(rpl-neighbor.o)
 .rodata        0x000000000002aba4       0xdb build/cooja/mtype398.a(rpl-dag.o)
 .rodata        0x000000000002ac7f        0xc build/cooja/mtype398.a(rpl-timers.o)

.rodata1
 *(.rodata1)

.eh_frame_hdr   0x000000000002ac8c     0x19ec
 *(.eh_frame_hdr)
 .eh_frame_hdr  0x000000000002ac8c     0x19ec device.o
                0x000000000002ac8c                __GNU_EH_FRAME_HDR
 *(.eh_frame_entry .eh_frame_entry.*)

.eh_frame       0x000000000002c678     0x6928
 *(.eh_frame)
 .eh_frame      0x000000000002c678       0x3c /usr/lib/gcc/i686-linux-gnu/5/../../../i386-linux-gnu/crti.o
                                         0x40 (size before relaxing)
 .eh_frame      0x000000000002c6b4       0x40 device.o
                                         0x58 (size before relaxing)
 .eh_frame      0x000000000002c6f4      0x178 build/cooja/mtype398.o
                                        0x190 (size before relaxing)
 .eh_frame      0x000000000002c86c       0x40 build/cooja/mtype398.a(simEnvChange.o)
                                         0x58 (size before relaxing)
 .eh_frame      0x000000000002c8ac       0x60 build/cooja/mtype398.a(cooja_mt.o)
                                         0x78 (size before relaxing)
 .eh_frame      0x000000000002c90c       0x80 build/cooja/mtype398.a(cooja_mtarch.o)
                                         0x98 (size before relaxing)
 .eh_frame      0x000000000002c98c       0xc8 build/cooja/mtype398.a(rtimer-arch.o)
                                         0xe0 (size before relaxing)
 .eh_frame      0x000000000002ca54      0x160 build/cooja/mtype398.a(beep.o)
                                        0x178 (size before relaxing)
 .eh_frame      0x000000000002cbb4       0x80 build/cooja/mtype398.a(leds-arch.o)
                                         0x98 (size before relaxing)
 .eh_frame      0x000000000002cc34       0x40 build/cooja/mtype398.a(moteid.o)
                                         0x58 (size before relaxing)
 .eh_frame      0x000000000002cc74       0xa0 build/cooja/mtype398.a(pir-sensor.o)
                                         0xb8 (size before relaxing)
 .eh_frame      0x000000000002cd14      0x100 build/cooja/mtype398.a(rs232.o)
                                        0x118 (size before relaxing)
 .eh_frame      0x000000000002ce14       0xa0 build/cooja/mtype398.a(vib-sensor.o)
                                         0xb8 (size before relaxing)
 .eh_frame      0x000000000002ceb4       0xc0 build/cooja/mtype398.a(clock.o)
                                         0xd8 (size before relaxing)
 .eh_frame      0x000000000002cf74      0x120 build/cooja/mtype398.a(cooja-log.o)
                                        0x138 (size before relaxing)
 .eh_frame      0x000000000002d094      0x160 build/cooja/mtype398.a(cfs-cooja.o)
                                        0x178 (size before relaxing)
 .eh_frame      0x000000000002d1f4      0x340 build/cooja/mtype398.a(cooja-radio.o)
                                        0x358 (size before relaxing)
 .eh_frame      0x000000000002d534       0xa0 build/cooja/mtype398.a(eeprom.o)
                                         0xb8 (size before relaxing)
 .eh_frame      0x000000000002d5d4       0x40 build/cooja/mtype398.a(random.o)
                                         0x58 (size before relaxing)
 .eh_frame      0x000000000002d614       0xc0 build/cooja/mtype398.a(sensors.o)
                                         0xd8 (size before relaxing)
 .eh_frame      0x000000000002d6d4      0x120 build/cooja/mtype398.a(leds.o)
                                        0x138 (size before relaxing)
 .eh_frame      0x000000000002d7f4      0x220 build/cooja/mtype398.a(gpio-hal-arch.o)
                                        0x238 (size before relaxing)
 .eh_frame      0x000000000002da14       0xa0 build/cooja/mtype398.a(buttons.o)
                                         0xb8 (size before relaxing)
 .eh_frame      0x000000000002dab4       0x40 build/cooja/mtype398.a(roller.o)
                                         0x58 (size before relaxing)
 .eh_frame      0x000000000002daf4       0x60 build/cooja/mtype398.a(brightness.o)
                                         0x78 (size before relaxing)
 .eh_frame      0x000000000002db54       0x44 build/cooja/mtype398.a(coap-blocking-a)
                                         0x5c (size before relaxing)
 .eh_frame      0x000000000002db98      0x220 build/cooja/mtype398.a(coap-engine.o)
                                        0x238 (size before relaxing)
 .eh_frame      0x000000000002ddb8       0x24 build/cooja/mtype398.a(coap-res-well-k)
                                         0x3c (size before relaxing)
 .eh_frame      0x000000000002dddc      0x188 build/cooja/mtype398.a(coap-observe.o)
                                        0x1a0 (size before relaxing)
 .eh_frame      0x000000000002df64      0x250 build/cooja/mtype398.a(coap-uip.o)
                                        0x268 (size before relaxing)
 .eh_frame      0x000000000002e1b4      0x114 build/cooja/mtype398.a(coap-timer.o)
                                        0x12c (size before relaxing)
 .eh_frame      0x000000000002e2c8      0x100 build/cooja/mtype398.a(coap-transactio)
                                        0x118 (size before relaxing)
 .eh_frame      0x000000000002e3c8      0x6ec build/cooja/mtype398.a(coap.o)
                                        0x704 (size before relaxing)
 .eh_frame      0x000000000002eab4       0x30 build/cooja/mtype398.a(contiki-main.o)
                                         0x48 (size before relaxing)
 .eh_frame      0x000000000002eae4       0x40 build/cooja/mtype398.a(autostart.o)
                                         0x58 (size before relaxing)
 .eh_frame      0x000000000002eb24      0x100 build/cooja/mtype398.a(ctimer.o)
                                        0x118 (size before relaxing)
 .eh_frame      0x000000000002ec24      0x100 build/cooja/mtype398.a(log.o)
                                        0x118 (size before relaxing)
 .eh_frame      0x000000000002ed24       0x60 build/cooja/mtype398.a(energest.o)
                                         0x78 (size before relaxing)
 .eh_frame      0x000000000002ed84      0x1e0 build/cooja/mtype398.a(etimer.o)
                                        0x1f8 (size before relaxing)
 .eh_frame      0x000000000002ef64       0x20 build/cooja/mtype398.a(node-id.o)
                                         0x38 (size before relaxing)
 .eh_frame      0x000000000002ef84       0x60 build/cooja/mtype398.a(rtimer.o)
                                         0x78 (size before relaxing)
 .eh_frame      0x000000000002efe4      0x1c4 build/cooja/mtype398.a(process.o)
                                        0x1dc (size before relaxing)
 .eh_frame      0x000000000002f1a8       0xa4 build/cooja/mtype398.a(timer.o)
                                         0xbc (size before relaxing)
 .eh_frame      0x000000000002f24c      0x1a0 build/cooja/mtype398.a(list.o)
                                        0x1b8 (size before relaxing)
 .eh_frame      0x000000000002f3ec       0xa0 build/cooja/mtype398.a(memb.o)
                                         0xb8 (size before relaxing)
 .eh_frame      0x000000000002f48c      0x144 build/cooja/mtype398.a(button-hal.o)
                                        0x15c (size before relaxing)
 .eh_frame      0x000000000002f5d0       0x60 build/cooja/mtype398.a(serial-line.o)
                                         0x78 (size before relaxing)
 .eh_frame      0x000000000002f630       0xe0 build/cooja/mtype398.a(gpio-hal.o)
                                         0xf8 (size before relaxing)
 .eh_frame      0x000000000002f710      0x1a0 build/cooja/mtype398.a(queuebuf.o)
                                        0x1b8 (size before relaxing)
 .eh_frame      0x000000000002f8b0      0x28c build/cooja/mtype398.a(packetbuf.o)
                                        0x2a4 (size before relaxing)
 .eh_frame      0x000000000002fb3c       0x80 build/cooja/mtype398.a(netstack.o)
                                         0x98 (size before relaxing)
 .eh_frame      0x000000000002fbbc       0x60 build/cooja/mtype398.a(linkaddr.o)
                                         0x78 (size before relaxing)
 .eh_frame      0x000000000002fc1c       0xe0 build/cooja/mtype398.a(csma.o)
                                         0xf8 (size before relaxing)
 .eh_frame      0x000000000002fcfc      0x1d0 build/cooja/mtype398.a(csma-output.o)
                                        0x1e8 (size before relaxing)
 .eh_frame      0x000000000002fecc      0x328 build/cooja/mtype398.a(uip-ds6.o)
                                        0x340 (size before relaxing)
 .eh_frame      0x00000000000301f4       0x40 build/cooja/mtype398.a(uip-udp-packet.)
                                         0x58 (size before relaxing)
 .eh_frame      0x0000000000030234      0x220 build/cooja/mtype398.a(uip-ds6-route.o)
                                        0x238 (size before relaxing)
 .eh_frame      0x0000000000030454      0x244 build/cooja/mtype398.a(tcpip.o)
                                        0x25c (size before relaxing)
 .eh_frame      0x0000000000030698      0x1e8 build/cooja/mtype398.a(uip6.o)
                                        0x200 (size before relaxing)
 .eh_frame      0x0000000000030880      0x1c0 build/cooja/mtype398.a(uip-ds6-nbr.o)
                                        0x1d8 (size before relaxing)
 .eh_frame      0x0000000000030a40       0x84 build/cooja/mtype398.a(uip-nd6.o)
                                         0x9c (size before relaxing)
 .eh_frame      0x0000000000030ac4      0x2f8 build/cooja/mtype398.a(sicslowpan.o)
                                        0x310 (size before relaxing)
 .eh_frame      0x0000000000030dbc       0x88 build/cooja/mtype398.a(uiplib.o)
                                         0xa0 (size before relaxing)
 .eh_frame      0x0000000000030e44      0x1e0 build/cooja/mtype398.a(rpl.o)
                                        0x1f8 (size before relaxing)
 .eh_frame      0x0000000000031024      0x1c4 build/cooja/mtype398.a(rpl-icmp6.o)
                                        0x1dc (size before relaxing)
 .eh_frame      0x00000000000311e8       0xa0 build/cooja/mtype398.a(rpl-dag-root.o)
                                         0xb8 (size before relaxing)
 .eh_frame      0x0000000000031288       0xa0 build/cooja/mtype398.a(watchdog.o)
                                         0xb8 (size before relaxing)
 .eh_frame      0x0000000000031328       0x80 build/cooja/mtype398.a(int-master.o)
                                         0x98 (size before relaxing)
 .eh_frame      0x00000000000313a8       0xa4 build/cooja/mtype398.a(coap-timer-defa)
                                         0xbc (size before relaxing)
 .eh_frame      0x000000000003144c       0xc4 build/cooja/mtype398.a(stimer.o)
                                         0xdc (size before relaxing)
 .eh_frame      0x0000000000031510       0xa0 build/cooja/mtype398.a(ringbuf.o)
                                         0xb8 (size before relaxing)
 .eh_frame      0x00000000000315b0       0x20 build/cooja/mtype398.a(assert.o)
                                         0x38 (size before relaxing)
 .eh_frame      0x00000000000315d0      0x2ac build/cooja/mtype398.a(nbr-table.o)
                                        0x2c4 (size before relaxing)
 .eh_frame      0x000000000003187c      0x120 build/cooja/mtype398.a(link-stats.o)
                                        0x138 (size before relaxing)
 .eh_frame      0x000000000003199c       0x48 build/cooja/mtype398.a(mac-sequence.o)
                                         0x60 (size before relaxing)
 .eh_frame      0x00000000000319e4       0x20 build/cooja/mtype398.a(mac.o)
                                         0x38 (size before relaxing)
 .eh_frame      0x0000000000031a04       0xa4 build/cooja/mtype398.a(framer-802154.o)
                                         0xbc (size before relaxing)
 .eh_frame      0x0000000000031aa8      0x1a4 build/cooja/mtype398.a(frame802154.o)
                                        0x1bc (size before relaxing)
 .eh_frame      0x0000000000031c4c       0x40 build/cooja/mtype398.a(csma-security.o)
                                         0x58 (size before relaxing)
 .eh_frame      0x0000000000031c8c      0x200 build/cooja/mtype398.a(uipbuf.o)
                                        0x218 (size before relaxing)
 .eh_frame      0x0000000000031e8c      0x150 build/cooja/mtype398.a(uip-icmp6.o)
                                        0x168 (size before relaxing)
 .eh_frame      0x0000000000031fdc      0x184 build/cooja/mtype398.a(uip-sr.o)
                                        0x19c (size before relaxing)
 .eh_frame      0x0000000000032160       0xe0 build/cooja/mtype398.a(uip-packetqueue)
                                         0xf8 (size before relaxing)
 .eh_frame      0x0000000000032240       0x80 build/cooja/mtype398.a(rpl-nbr-policy.)
                                         0x98 (size before relaxing)
 .eh_frame      0x00000000000322c0      0x2d4 build/cooja/mtype398.a(rpl-neighbor.o)
                                        0x2ec (size before relaxing)
 .eh_frame      0x0000000000032594      0x370 build/cooja/mtype398.a(rpl-dag.o)
                                        0x388 (size before relaxing)
 .eh_frame      0x0000000000032904      0x3a8 build/cooja/mtype398.a(rpl-timers.o)
                                        0x3c0 (size before relaxing)
 .eh_frame      0x0000000000032cac      0x124 build/cooja/mtype398.a(rpl-ext-header.)
                                        0x13c (size before relaxing)
 .eh_frame      0x0000000000032dd0      0x148 build/cooja/mtype398.a(rpl-mrhof.o)
                                        0x160 (size before relaxing)
 .eh_frame      0x0000000000032f18       0x84 /usr/lib/gcc/i686-linux-gnu/5/libgcc.a(_udivdi3.o)
                                         0x9c (size before relaxing)
 .eh_frame      0x0000000000032f9c        0x4 /usr/lib/gcc/i686-linux-gnu/5/crtendS.o
 *(.eh_frame.*)

.gcc_except_table
 *(.gcc_except_table .gcc_except_table.*)

.gnu_extab
 *(.gnu_extab*)

.exception_ranges
 *(.exception_ranges .exception_ranges*)
                0x0000000000034f10                . = DATA_SEGMENT_ALIGN (0x1000, 0x1000)

.eh_frame
 *(.eh_frame)
 *(.eh_frame.*)

.gnu_extab
 *(.gnu_extab)

.gcc_except_table
 *(.gcc_except_table .gcc_except_table.*)

.exception_ranges
 *(.exception_ranges .exception_ranges*)

.tdata
 *(.tdata .tdata.* .gnu.linkonce.td.*)

.tbss
 *(.tbss .tbss.* .gnu.linkonce.tb.*)
 *(.tcommon)

.preinit_array
 *(.preinit_array)

.init_array     0x0000000000034f10        0x4
 *(SORT(.init_array.*) SORT(.ctors.*))
 *(.init_array EXCLUDE_FILE(*crtend?.o *crtend.o *crtbegin?.o *crtbegin.o) .ctors)
 .init_array    0x0000000000034f10        0x4 /usr/lib/gcc/i686-linux-gnu/5/crtbeginS.o

.fini_array     0x0000000000034f14        0x4
 *(SORT(.fini_array.*) SORT(.dtors.*))
 *(.fini_array EXCLUDE_FILE(*crtend?.o *crtend.o *crtbegin?.o *crtbegin.o) .dtors)
 .fini_array    0x0000000000034f14        0x4 /usr/lib/gcc/i686-linux-gnu/5/crtbeginS.o

.ctors
 *crtbegin.o(.ctors)
 *crtbegin?.o(.ctors)
 *(EXCLUDE_FILE(*crtend?.o *crtend.o) .ctors)
 *(SORT(.ctors.*))
 *(.ctors)

.dtors
 *crtbegin.o(.dtors)
 *crtbegin?.o(.dtors)
 *(EXCLUDE_FILE(*crtend?.o *crtend.o) .dtors)
 *(SORT(.dtors.*))
 *(.dtors)

.jcr            0x0000000000034f18        0x4
 *(.jcr)
 .jcr           0x0000000000034f18        0x0 /usr/lib/gcc/i686-linux-gnu/5/crtbeginS.o
 .jcr           0x0000000000034f18        0x4 /usr/lib/gcc/i686-linux-gnu/5/crtendS.o

.data.rel.ro
 *(.data.rel.ro.local* .gnu.linkonce.d.rel.ro.local.*)
 *(.data.rel.ro .data.rel.ro.* .gnu.linkonce.d.rel.ro.*)

.dynamic        0x0000000000034f1c       0xd0
 *(.dynamic)
 .dynamic       0x0000000000034f1c       0xd0 /usr/lib/gcc/i686-linux-gnu/5/../../../i386-linux-gnu/crti.o
                0x0000000000034f1c                _DYNAMIC

.got            0x0000000000034fec       0x14
 *(.got)
 .got           0x0000000000034fec       0x14 /usr/lib/gcc/i686-linux-gnu/5/../../../i386-linux-gnu/crti.o
 *(.igot)
                0x0000000000035ff4                . = DATA_SEGMENT_RELRO_END (., (SIZEOF (.got.plt) >= 0xc)?0xc:0x0)

.got.plt        0x0000000000035000        0xc
 *(.got.plt)
 .got.plt       0x0000000000035000        0xc /usr/lib/gcc/i686-linux-gnu/5/../../../i386-linux-gnu/crti.o
                0x0000000000035000                _GLOBAL_OFFSET_TABLE_
 *(.igot.plt)

.data           0x0000000000035020      0x4a4
 *(.data .data.* .gnu.linkonce.d.*)
 .data          0x0000000000035020        0x0 /usr/lib/gcc/i686-linux-gnu/5/../../../i386-linux-gnu/crti.o
 .data          0x0000000000035020        0x0 /usr/lib/gcc/i686-linux-gnu/5/crtbeginS.o
 .data.rel.local
                0x0000000000035020        0x4 /usr/lib/gcc/i686-linux-gnu/5/crtbeginS.o
                0x0000000000035020                __dso_handle
 .data          0x0000000000035024       0x10 device.o
                0x0000000000035024                sensor_process
 *fill*         0x0000000000035034        0xc 
 .data          0x0000000000035040       0x44 build/cooja/mtype398.o
                0x0000000000035040                simInterfaces
                0x0000000000035074                sensors
 .data          0x0000000000035084        0x0 build/cooja/mtype398.a(simEnvChange.o)
 .data          0x0000000000035084        0x0 build/cooja/mtype398.a(cooja_mt.o)
 .data          0x0000000000035084        0x0 build/cooja/mtype398.a(cooja_mtarch.o)
 .data          0x0000000000035084        0x0 build/cooja/mtype398.a(rtimer-arch.o)
 .data          0x0000000000035084        0x0 build/cooja/mtype398.a(beep.o)
 .data          0x0000000000035084        0x0 build/cooja/mtype398.a(leds-arch.o)
 .data          0x0000000000035084        0x0 build/cooja/mtype398.a(moteid.o)
 .data          0x0000000000035084        0x0 build/cooja/mtype398.a(pir-sensor.o)
 .data          0x0000000000035084        0x0 build/cooja/mtype398.a(rs232.o)
 .data          0x0000000000035084        0x0 build/cooja/mtype398.a(vib-sensor.o)
 .data          0x0000000000035084        0x0 build/cooja/mtype398.a(clock.o)
 .data          0x0000000000035084        0x0 build/cooja/mtype398.a(cooja-log.o)
 .data          0x0000000000035084        0x0 build/cooja/mtype398.a(cfs-cooja.o)
 .data          0x0000000000035084       0x2c build/cooja/mtype398.a(cooja-radio.o)
                0x0000000000035084                simRadioHWOn
                0x0000000000035088                simSignalStrength
                0x000000000003508c                simLastSignalStrength
                0x0000000000035090                simPower
                0x0000000000035094                simRadioChannel
                0x0000000000035098                simLQI
                0x00000000000350a0                cooja_radio_process
 .data          0x00000000000350b0        0x0 build/cooja/mtype398.a(eeprom.o)
 .data          0x00000000000350b0        0x0 build/cooja/mtype398.a(random.o)
 .data          0x00000000000350b0       0x10 build/cooja/mtype398.a(sensors.o)
                0x00000000000350b0                sensors_process
 .data          0x00000000000350c0        0x0 build/cooja/mtype398.a(leds.o)
 .data          0x00000000000350c0        0x0 build/cooja/mtype398.a(gpio-hal-arch.o)
 .data          0x00000000000350c0       0x78 build/cooja/mtype398.a(buttons.o)
                0x00000000000350c0                simButtonIsActive
                0x0000000000035130                button_hal_buttons
 *fill*         0x0000000000035138        0x8 
 .data          0x0000000000035140       0x24 build/cooja/mtype398.a(roller.o)
                0x0000000000035140                roller
 *fill*         0x0000000000035164       0x1c 
 .data          0x0000000000035180       0x44 build/cooja/mtype398.a(brightness.o)
                0x00000000000351a0                brightness
 .data          0x00000000000351c4        0x0 build/cooja/mtype398.a(coap-blocking-a)
 .data          0x00000000000351c4        0x8 build/cooja/mtype398.a(coap-engine.o)
 *fill*         0x00000000000351cc       0x14 
 .data          0x00000000000351e0       0x24 build/cooja/mtype398.a(coap-res-well-k)
                0x00000000000351e0                res_well_known_core
 .data          0x0000000000035204       0x10 build/cooja/mtype398.a(coap-observe.o)
 .data          0x0000000000035214       0x10 build/cooja/mtype398.a(coap-uip.o)
                0x0000000000035214                coap_engine
 .data          0x0000000000035224        0x4 build/cooja/mtype398.a(coap-timer.o)
 .data          0x0000000000035228       0x10 build/cooja/mtype398.a(coap-transactio)
 .data          0x0000000000035238        0x4 build/cooja/mtype398.a(coap.o)
                0x0000000000035238                coap_error_message
 .data          0x000000000003523c        0x0 build/cooja/mtype398.a(contiki-main.o)
 .data          0x000000000003523c        0x0 build/cooja/mtype398.a(autostart.o)
 .data          0x000000000003523c       0x14 build/cooja/mtype398.a(ctimer.o)
                0x0000000000035240                ctimer_process
 *fill*         0x0000000000035250       0x10 
 .data          0x0000000000035260       0xbc build/cooja/mtype398.a(log.o)
                0x0000000000035260                curr_log_level_main
                0x0000000000035280                all_modules
 .data          0x000000000003531c        0x0 build/cooja/mtype398.a(energest.o)
 .data          0x000000000003531c       0x10 build/cooja/mtype398.a(etimer.o)
                0x000000000003531c                etimer_process
 .data          0x000000000003532c        0x0 build/cooja/mtype398.a(node-id.o)
 .data          0x000000000003532c        0x0 build/cooja/mtype398.a(rtimer.o)
 .data          0x000000000003532c        0x0 build/cooja/mtype398.a(process.o)
 .data          0x000000000003532c        0x0 build/cooja/mtype398.a(timer.o)
 .data          0x000000000003532c        0x0 build/cooja/mtype398.a(list.o)
 .data          0x000000000003532c        0x0 build/cooja/mtype398.a(memb.o)
 .data          0x000000000003532c       0x10 build/cooja/mtype398.a(button-hal.o)
                0x000000000003532c                button_hal_process
 .data          0x000000000003533c       0x10 build/cooja/mtype398.a(serial-line.o)
                0x000000000003533c                serial_line_process
 .data          0x000000000003534c        0x4 build/cooja/mtype398.a(gpio-hal.o)
 .data          0x0000000000035350       0x18 build/cooja/mtype398.a(queuebuf.o)
 .data          0x0000000000035368        0x4 build/cooja/mtype398.a(packetbuf.o)
 .data          0x000000000003536c        0x4 build/cooja/mtype398.a(netstack.o)
 .data          0x0000000000035370        0x0 build/cooja/mtype398.a(linkaddr.o)
 .data          0x0000000000035370        0x0 build/cooja/mtype398.a(csma.o)
 .data          0x0000000000035370       0x28 build/cooja/mtype398.a(csma-output.o)
 .data          0x0000000000035398        0x0 build/cooja/mtype398.a(uip-ds6.o)
 .data          0x0000000000035398        0x0 build/cooja/mtype398.a(uip-udp-packet.)
 .data          0x0000000000035398       0x10 build/cooja/mtype398.a(uip-ds6-route.o)
 .data          0x00000000000353a8       0x10 build/cooja/mtype398.a(tcpip.o)
                0x00000000000353a8                tcpip_process
 .data          0x00000000000353b8        0x0 build/cooja/mtype398.a(uip6.o)
 .data          0x00000000000353b8       0x14 build/cooja/mtype398.a(uip-ds6-nbr.o)
 .data          0x00000000000353cc        0xc build/cooja/mtype398.a(uip-nd6.o)
 .data          0x00000000000353d8        0x0 build/cooja/mtype398.a(sicslowpan.o)
 .data          0x00000000000353d8        0x0 build/cooja/mtype398.a(uiplib.o)
 .data          0x00000000000353d8        0x0 build/cooja/mtype398.a(rpl.o)
 .data          0x00000000000353d8       0x30 build/cooja/mtype398.a(rpl-icmp6.o)
 .data          0x0000000000035408        0x0 build/cooja/mtype398.a(rpl-dag-root.o)
 .data          0x0000000000035408        0x0 build/cooja/mtype398.a(watchdog.o)
 .data          0x0000000000035408        0x0 build/cooja/mtype398.a(int-master.o)
 .data          0x0000000000035408       0x10 build/cooja/mtype398.a(coap-timer-defa)
                0x0000000000035408                coap_timer_process
 .data          0x0000000000035418        0x0 build/cooja/mtype398.a(stimer.o)
 .data          0x0000000000035418        0x0 build/cooja/mtype398.a(ringbuf.o)
 .data          0x0000000000035418        0x0 build/cooja/mtype398.a(assert.o)
 .data          0x0000000000035418       0x10 build/cooja/mtype398.a(nbr-table.o)
 .data          0x0000000000035428       0x14 build/cooja/mtype398.a(link-stats.o)
 .data          0x000000000003543c        0x0 build/cooja/mtype398.a(mac-sequence.o)
 .data          0x000000000003543c        0x0 build/cooja/mtype398.a(mac.o)
 .data          0x000000000003543c        0x0 build/cooja/mtype398.a(framer-802154.o)
 .data          0x000000000003543c        0x2 build/cooja/mtype398.a(frame802154.o)
 .data          0x000000000003543e        0x0 build/cooja/mtype398.a(csma-security.o)
 .data          0x000000000003543e        0x0 build/cooja/mtype398.a(uipbuf.o)
 *fill*         0x000000000003543e        0x2 
 .data          0x0000000000035440       0x20 build/cooja/mtype398.a(uip-icmp6.o)
 .data          0x0000000000035460       0x10 build/cooja/mtype398.a(uip-sr.o)
 .data          0x0000000000035470        0xc build/cooja/mtype398.a(uip-packetqueue)
 .data          0x000000000003547c        0x0 build/cooja/mtype398.a(rpl-nbr-policy.)
 .data          0x000000000003547c       0x14 build/cooja/mtype398.a(rpl-neighbor.o)
                0x000000000003548c                rpl_neighbors
 .data          0x0000000000035490        0x0 build/cooja/mtype398.a(rpl-dag.o)
 .data          0x0000000000035490        0x0 build/cooja/mtype398.a(rpl-timers.o)
 .data          0x0000000000035490        0x0 build/cooja/mtype398.a(rpl-ext-header.)
 *fill*         0x0000000000035490       0x10 
 .data          0x00000000000354a0       0x24 build/cooja/mtype398.a(rpl-mrhof.o)
                0x00000000000354a0                rpl_mrhof
 .data          0x00000000000354c4        0x0 /usr/lib/gcc/i686-linux-gnu/5/libgcc.a(_udivdi3.o)
 .data          0x00000000000354c4        0x0 /usr/lib/gcc/i686-linux-gnu/5/crtendS.o
 .data          0x00000000000354c4        0x0 /usr/lib/gcc/i686-linux-gnu/5/../../../i386-linux-gnu/crtn.o

.tm_clone_table
                0x00000000000354c4        0x0
 .tm_clone_table
                0x00000000000354c4        0x0 /usr/lib/gcc/i686-linux-gnu/5/crtbeginS.o
 .tm_clone_table
                0x00000000000354c4        0x0 /usr/lib/gcc/i686-linux-gnu/5/crtendS.o

.data1
 *(.data1)
                0x00000000000354c4                _edata = .
                [!provide]                        PROVIDE (edata, .)
                0x00000000000354c4                . = .
                0x00000000000354c4                __bss_start = .

.bss            0x00000000000354e0    0x13fc4
 *(.dynbss)
 .dynbss        0x00000000000354e0        0x0 /usr/lib/gcc/i686-linux-gnu/5/../../../i386-linux-gnu/crti.o
 *(.bss .bss.* .gnu.linkonce.b.*)
 .bss           0x00000000000354e0        0x0 /usr/lib/gcc/i686-linux-gnu/5/../../../i386-linux-gnu/crti.o
 .bss           0x00000000000354e0        0x1 /usr/lib/gcc/i686-linux-gnu/5/crtbeginS.o
 *fill*         0x00000000000354e1       0x1f 
 .bss           0x0000000000035500      0x16c device.o
                0x0000000000035500                registered
 *fill*         0x000000000003566c       0x14 
 .bss           0x0000000000035680     0x2030 build/cooja/mtype398.o
 .bss           0x00000000000376b0        0x1 build/cooja/mtype398.a(simEnvChange.o)
                0x00000000000376b0                simDontFallAsleep
 *fill*         0x00000000000376b1        0x3 
 .bss           0x00000000000376b4        0x4 build/cooja/mtype398.a(cooja_mt.o)
 .bss           0x00000000000376b8        0x4 build/cooja/mtype398.a(cooja_mtarch.o)
 .bss           0x00000000000376bc        0x0 build/cooja/mtype398.a(rtimer-arch.o)
 .bss           0x00000000000376bc        0x0 build/cooja/mtype398.a(beep.o)
 .bss           0x00000000000376bc        0x1 build/cooja/mtype398.a(leds-arch.o)
                0x00000000000376bc                simLedsValue
 .bss           0x00000000000376bd        0x0 build/cooja/mtype398.a(moteid.o)
 .bss           0x00000000000376bd        0x1 build/cooja/mtype398.a(pir-sensor.o)
                0x00000000000376bd                simPirValue
 *fill*         0x00000000000376be        0x2 
 .bss           0x00000000000376c0        0x4 build/cooja/mtype398.a(rs232.o)
 .bss           0x00000000000376c4        0x1 build/cooja/mtype398.a(vib-sensor.o)
                0x00000000000376c4                simVibValue
 .bss           0x00000000000376c5        0x0 build/cooja/mtype398.a(clock.o)
 *fill*         0x00000000000376c5       0x1b 
 .bss           0x00000000000376e0     0x2020 build/cooja/mtype398.a(cooja-log.o)
 .bss           0x0000000000039700      0xfc0 build/cooja/mtype398.a(cfs-cooja.o)
                0x0000000000039700                simCFSData
                0x000000000003a6a0                simCFSSize
                0x000000000003a6a4                simCFSChanged
                0x000000000003a6a8                simCFSRead
                0x000000000003a6ac                simCFSWritten
 .bss           0x000000000003a6c0       0x24 build/cooja/mtype398.a(cooja-radio.o)
                0x000000000003a6c0                simReceiving
                0x000000000003a6c4                simInSize
                0x000000000003a6c8                simLastPacketTimestamp
                0x000000000003a6d0                simOutSize
 .bss           0x000000000003a6e4        0xc build/cooja/mtype398.a(eeprom.o)
                0x000000000003a6e4                simEEPROMChanged
                0x000000000003a6e8                simEEPROMRead
                0x000000000003a6ec                simEEPROMWritten
 .bss           0x000000000003a6f0        0x0 build/cooja/mtype398.a(random.o)
 .bss           0x000000000003a6f0        0xc build/cooja/mtype398.a(sensors.o)
 .bss           0x000000000003a6fc        0x0 build/cooja/mtype398.a(leds.o)
 .bss           0x000000000003a6fc       0x24 build/cooja/mtype398.a(gpio-hal-arch.o)
 .bss           0x000000000003a720        0x0 build/cooja/mtype398.a(buttons.o)
 .bss           0x000000000003a720        0x1 build/cooja/mtype398.a(roller.o)
                0x000000000003a720                roller_state
 *fill*         0x000000000003a721        0x3 
 .bss           0x000000000003a724        0x4 build/cooja/mtype398.a(brightness.o)
 .bss           0x000000000003a728        0x0 build/cooja/mtype398.a(coap-blocking-a)
 *fill*         0x000000000003a728       0x18 
 .bss           0x000000000003a740      0x190 build/cooja/mtype398.a(coap-engine.o)
 .bss           0x000000000003a8d0        0x0 build/cooja/mtype398.a(coap-res-well-k)
 *fill*         0x000000000003a8d0       0x10 
 .bss           0x000000000003a8e0      0x120 build/cooja/mtype398.a(coap-observe.o)
 .bss           0x000000000003aa00       0x18 build/cooja/mtype398.a(coap-uip.o)
 .bss           0x000000000003aa18        0x5 build/cooja/mtype398.a(coap-timer.o)
 *fill*         0x000000000003aa1d        0x3 
 .bss           0x000000000003aa20      0x334 build/cooja/mtype398.a(coap-transactio)
 .bss           0x000000000003ad54        0x6 build/cooja/mtype398.a(coap.o)
                0x000000000003ad54                coap_status_code
 .bss           0x000000000003ad5a        0x0 build/cooja/mtype398.a(contiki-main.o)
 .bss           0x000000000003ad5a        0x0 build/cooja/mtype398.a(autostart.o)
 *fill*         0x000000000003ad5a        0x2 
 .bss           0x000000000003ad5c        0x5 build/cooja/mtype398.a(ctimer.o)
 *fill*         0x000000000003ad61        0x3 
 .bss           0x000000000003ad64       0x2c build/cooja/mtype398.a(log.o)
                0x000000000003ad64                curr_log_level_rpl
                0x000000000003ad68                curr_log_level_tcpip
                0x000000000003ad6c                curr_log_level_ipv6
                0x000000000003ad70                curr_log_level_6lowpan
                0x000000000003ad74                curr_log_level_nullnet
                0x000000000003ad78                curr_log_level_mac
                0x000000000003ad7c                curr_log_level_framer
                0x000000000003ad80                curr_log_level_6top
                0x000000000003ad84                curr_log_level_coap
                0x000000000003ad88                curr_log_level_snmp
                0x000000000003ad8c                curr_log_level_lwm2m
 .bss           0x000000000003ad90        0x0 build/cooja/mtype398.a(energest.o)
 .bss           0x000000000003ad90        0x8 build/cooja/mtype398.a(etimer.o)
 .bss           0x000000000003ad98        0x2 build/cooja/mtype398.a(node-id.o)
                0x000000000003ad98                node_id
 *fill*         0x000000000003ad9a        0x2 
 .bss           0x000000000003ad9c        0x4 build/cooja/mtype398.a(rtimer.o)
 .bss           0x000000000003ada0      0x1a1 build/cooja/mtype398.a(process.o)
                0x000000000003ada0                process_list
                0x000000000003ada4                process_current
 .bss           0x000000000003af41        0x0 build/cooja/mtype398.a(timer.o)
 .bss           0x000000000003af41        0x0 build/cooja/mtype398.a(list.o)
 .bss           0x000000000003af41        0x0 build/cooja/mtype398.a(memb.o)
 *fill*         0x000000000003af41        0x3 
 .bss           0x000000000003af44       0x10 build/cooja/mtype398.a(button-hal.o)
 *fill*         0x000000000003af54        0xc 
 .bss           0x000000000003af60      0x140 build/cooja/mtype398.a(serial-line.o)
 .bss           0x000000000003b0a0        0x4 build/cooja/mtype398.a(gpio-hal.o)
 *fill*         0x000000000003b0a4       0x1c 
 .bss           0x000000000003b0c0     0x2c80 build/cooja/mtype398.a(queuebuf.o)
 .bss           0x000000000003dd40       0xa0 build/cooja/mtype398.a(packetbuf.o)
 .bss           0x000000000003dde0        0x4 build/cooja/mtype398.a(netstack.o)
 .bss           0x000000000003dde4        0x0 build/cooja/mtype398.a(linkaddr.o)
 .bss           0x000000000003dde4        0x0 build/cooja/mtype398.a(csma.o)
 *fill*         0x000000000003dde4       0x1c 
 .bss           0x000000000003de00      0x726 build/cooja/mtype398.a(csma-output.o)
 *fill*         0x000000000003e526        0x2 
 .bss           0x000000000003e528       0x30 build/cooja/mtype398.a(uip-ds6.o)
 .bss           0x000000000003e558        0x0 build/cooja/mtype398.a(uip-udp-packet.)
 *fill*         0x000000000003e558        0x8 
 .bss           0x000000000003e560       0x60 build/cooja/mtype398.a(uip-ds6-route.o)
 .bss           0x000000000003e5c0       0x10 build/cooja/mtype398.a(tcpip.o)
 .bss           0x000000000003e5d0        0x8 build/cooja/mtype398.a(uip6.o)
                0x000000000003e5d0                uip_ext_bitmap
                0x000000000003e5d2                uip_ext_len
                0x000000000003e5d4                uip_last_proto
 *fill*         0x000000000003e5d8        0x8 
 .bss           0x000000000003e5e0     0x1c20 build/cooja/mtype398.a(uip-ds6-nbr.o)
 .bss           0x0000000000040200       0x10 build/cooja/mtype398.a(uip-nd6.o)
 *fill*         0x0000000000040210       0x10 
 .bss           0x0000000000040220      0x724 build/cooja/mtype398.a(sicslowpan.o)
 .bss           0x0000000000040944        0x0 build/cooja/mtype398.a(uiplib.o)
 .bss           0x0000000000040944        0x1 build/cooja/mtype398.a(rpl.o)
 .bss           0x0000000000040945        0x0 build/cooja/mtype398.a(rpl-icmp6.o)
 *fill*         0x0000000000040945        0x3 
 .bss           0x0000000000040948       0x11 build/cooja/mtype398.a(rpl-dag-root.o)
 .bss           0x0000000000040959        0x0 build/cooja/mtype398.a(watchdog.o)
 *fill*         0x0000000000040959        0x3 
 .bss           0x000000000004095c        0x4 build/cooja/mtype398.a(int-master.o)
 .bss           0x0000000000040960       0x1c build/cooja/mtype398.a(coap-timer-defa)
 .bss           0x000000000004097c        0x0 build/cooja/mtype398.a(stimer.o)
 .bss           0x000000000004097c        0x0 build/cooja/mtype398.a(ringbuf.o)
 .bss           0x000000000004097c        0x0 build/cooja/mtype398.a(assert.o)
 *fill*         0x000000000004097c        0x4 
 .bss           0x0000000000040980     0x1214 build/cooja/mtype398.a(nbr-table.o)
 *fill*         0x0000000000041b94        0xc 
 .bss           0x0000000000041ba0      0xe10 build/cooja/mtype398.a(link-stats.o)
 *fill*         0x00000000000429b0       0x10 
 .bss           0x00000000000429c0      0x100 build/cooja/mtype398.a(mac-sequence.o)
 .bss           0x0000000000042ac0        0x0 build/cooja/mtype398.a(mac.o)
 .bss           0x0000000000042ac0        0x2 build/cooja/mtype398.a(framer-802154.o)
 .bss           0x0000000000042ac2        0x0 build/cooja/mtype398.a(frame802154.o)
 .bss           0x0000000000042ac2        0x0 build/cooja/mtype398.a(csma-security.o)
 *fill*         0x0000000000042ac2        0x2 
 .bss           0x0000000000042ac4       0x18 build/cooja/mtype398.a(uipbuf.o)
 .bss           0x0000000000042adc       0x18 build/cooja/mtype398.a(uip-icmp6.o)
 *fill*         0x0000000000042af4        0xc 
 .bss           0x0000000000042b00     0x1d80 build/cooja/mtype398.a(uip-sr.o)
 .bss           0x0000000000044880      0xa78 build/cooja/mtype398.a(uip-packetqueue)
 .bss           0x00000000000452f8        0xe build/cooja/mtype398.a(rpl-nbr-policy.)
 *fill*         0x0000000000045306       0x1a 
 .bss           0x0000000000045320      0x960 build/cooja/mtype398.a(rpl-neighbor.o)
 .bss           0x0000000000045c80        0x0 build/cooja/mtype398.a(rpl-dag.o)
 .bss           0x0000000000045c80       0x40 build/cooja/mtype398.a(rpl-timers.o)
 .bss           0x0000000000045cc0        0x0 build/cooja/mtype398.a(rpl-ext-header.)
 .bss           0x0000000000045cc0        0x0 build/cooja/mtype398.a(rpl-mrhof.o)
 .bss           0x0000000000045cc0        0x0 /usr/lib/gcc/i686-linux-gnu/5/libgcc.a(_udivdi3.o)
 .bss           0x0000000000045cc0        0x0 /usr/lib/gcc/i686-linux-gnu/5/crtendS.o
 .bss           0x0000000000045cc0        0x0 /usr/lib/gcc/i686-linux-gnu/5/../../../i386-linux-gnu/crtn.o
 *(COMMON)
 COMMON         0x0000000000045cc0        0x8 build/cooja/mtype398.o
                0x0000000000045cc0                referenceVar
                0x0000000000045cc4                sensors_flags
 COMMON         0x0000000000045cc8        0xc build/cooja/mtype398.a(simEnvChange.o)
                0x0000000000045cc8                simEtimerPending
                0x0000000000045ccc                simProcessRunValue
                0x0000000000045cd0                simEtimerNextExpirationTime
 *fill*         0x0000000000045cd4        0x4 
 COMMON         0x0000000000045cd8       0x18 build/cooja/mtype398.a(rtimer-arch.o)
                0x0000000000045cd8                simRtimerPending
                0x0000000000045ce0                simRtimerCurrentTicks
                0x0000000000045ce8                simRtimerNextExpirationTime
 COMMON         0x0000000000045cf0        0x1 build/cooja/mtype398.a(beep.o)
                0x0000000000045cf0                simBeeped
 *fill*         0x0000000000045cf1        0x3 
 COMMON         0x0000000000045cf4        0xc build/cooja/mtype398.a(moteid.o)
                0x0000000000045cf4                simRandomSeed
                0x0000000000045cf8                simMoteIDChanged
                0x0000000000045cfc                simMoteID
 COMMON         0x0000000000045d00        0x2 build/cooja/mtype398.a(pir-sensor.o)
                0x0000000000045d00                simPirIsActive
                0x0000000000045d01                simPirChanged
 *fill*         0x0000000000045d02       0x1e 
 COMMON         0x0000000000045d20      0x820 build/cooja/mtype398.a(rs232.o)
                0x0000000000045d20                simSerialReceivingFlag
                0x0000000000045d24                simSerialReceivingLength
                0x0000000000045d40                simSerialReceivingData
 COMMON         0x0000000000046540        0x2 build/cooja/mtype398.a(vib-sensor.o)
                0x0000000000046540                simVibChanged
                0x0000000000046541                simVibIsActive
 *fill*         0x0000000000046542        0x2 
 COMMON         0x0000000000046544        0x4 build/cooja/mtype398.a(clock.o)
                0x0000000000046544                simCurrentTime
 *fill*         0x0000000000046548       0x18 
 COMMON         0x0000000000046560     0x2020 build/cooja/mtype398.a(cooja-log.o)
                0x0000000000046560                simLoggedLength
                0x0000000000046564                simLoggedFlag
                0x0000000000046580                simLoggedData
 COMMON         0x0000000000048580       0xfd build/cooja/mtype398.a(cooja-radio.o)
                0x0000000000048580                simOutDataBuffer
                0x0000000000048600                simInDataBuffer
 *fill*         0x000000000004867d        0x3 
 COMMON         0x0000000000048680      0x400 build/cooja/mtype398.a(eeprom.o)
                0x0000000000048680                simEEPROMData
 COMMON         0x0000000000048a80        0x1 build/cooja/mtype398.a(sensors.o)
                0x0000000000048a80                sensors_event
 COMMON         0x0000000000048a81        0x2 build/cooja/mtype398.a(buttons.o)
                0x0000000000048a81                simButtonIsDown
                0x0000000000048a82                simButtonChanged
 *fill*         0x0000000000048a83        0x1 
 COMMON         0x0000000000048a84       0x60 build/cooja/mtype398.a(contiki-main.o)
                0x0000000000048a84                eb_per_time_source
                0x0000000000048a9c                unicast_per_neighbor_rpl_storing
                0x0000000000048ab4                unicast_per_neighbor_rpl_ns
                0x0000000000048acc                default_common
 COMMON         0x0000000000048ae4        0x3 build/cooja/mtype398.a(button-hal.o)
                0x0000000000048ae4                button_hal_periodic_event
                0x0000000000048ae5                button_hal_press_event
                0x0000000000048ae6                button_hal_release_event
 COMMON         0x0000000000048ae7        0x1 build/cooja/mtype398.a(serial-line.o)
                0x0000000000048ae7                serial_line_event_message
 COMMON         0x0000000000048ae8       0x2c build/cooja/mtype398.a(packetbuf.o)
                0x0000000000048ae8                packetbuf_attrs
                0x0000000000048b04                packetbuf_addrs
 COMMON         0x0000000000048b14        0x8 build/cooja/mtype398.a(linkaddr.o)
                0x0000000000048b14                linkaddr_node_addr
 *fill*         0x0000000000048b1c        0x4 
 COMMON         0x0000000000048b20      0x181 build/cooja/mtype398.a(uip-ds6.o)
                0x0000000000048b20                uip_ds6_prefix_list
                0x0000000000048b80                uip_ds6_timer_periodic
                0x0000000000048b90                uip_ds6_netif_addr_list_offset
                0x0000000000048ba0                uip_ds6_if
                0x0000000000048c98                uip_ds6_timer_ra
                0x0000000000048ca0                uip_ds6_addr_size
 COMMON         0x0000000000048ca1        0x1 build/cooja/mtype398.a(tcpip.o)
                0x0000000000048ca1                tcpip_event
 *fill*         0x0000000000048ca2       0x1e 
 COMMON         0x0000000000048cc0      0x648 build/cooja/mtype398.a(uip6.o)
                0x0000000000048cc0                uip_slen
                0x0000000000048cc4                uip_lladdr
                0x0000000000048ccc                uip_appdata
                0x0000000000048cd0                uip_flags
                0x0000000000048ce0                uip_aligned_buf
                0x00000000000491e0                uip_len
                0x00000000000491e4                uip_sappdata
                0x0000000000049200                uip_udp_conns
                0x0000000000049300                uip_udp_conn
                0x0000000000049304                uip_conn
 COMMON         0x0000000000049308       0x10 build/cooja/mtype398.a(rpl.o)
                0x0000000000049308                rpl_multicast_addr
 *fill*         0x0000000000049318        0x8 
 COMMON         0x0000000000049320       0x20 build/cooja/mtype398.a(link-stats.o)
                0x0000000000049320                periodic_timer
 COMMON         0x0000000000049340      0x164 build/cooja/mtype398.a(rpl-dag.o)
                0x0000000000049340                curr_instance
                0x00000000000494a4                . = ALIGN ((. != 0x0)?0x4:0x1)
                0x00000000000494a4                . = ALIGN (0x4)
                0x00000000000494a4                . = SEGMENT_START ("ldata-segment", .)
                0x00000000000494a4                . = ALIGN (0x4)
                0x00000000000494a4                _end = .
                [!provide]                        PROVIDE (end, .)
                0x00000000000494a4                . = DATA_SEGMENT_END (.)

.stab
 *(.stab)

.stabstr
 *(.stabstr)

.stab.excl
 *(.stab.excl)

.stab.exclstr
 *(.stab.exclstr)

.stab.index
 *(.stab.index)

.stab.indexstr
 *(.stab.indexstr)

.comment        0x0000000000000000       0x35
 *(.comment)
 .comment       0x0000000000000000       0x35 /usr/lib/gcc/i686-linux-gnu/5/crtbeginS.o
                                         0x36 (size before relaxing)
 .comment       0x0000000000000035       0x36 device.o
 .comment       0x0000000000000035       0x36 build/cooja/mtype398.o
 .comment       0x0000000000000035       0x36 build/cooja/mtype398.a(simEnvChange.o)
 .comment       0x0000000000000035       0x36 build/cooja/mtype398.a(cooja_mt.o)
 .comment       0x0000000000000035       0x36 build/cooja/mtype398.a(cooja_mtarch.o)
 .comment       0x0000000000000035       0x36 build/cooja/mtype398.a(rtimer-arch.o)
 .comment       0x0000000000000035       0x36 build/cooja/mtype398.a(beep.o)
 .comment       0x0000000000000035       0x36 build/cooja/mtype398.a(leds-arch.o)
 .comment       0x0000000000000035       0x36 build/cooja/mtype398.a(moteid.o)
 .comment       0x0000000000000035       0x36 build/cooja/mtype398.a(pir-sensor.o)
 .comment       0x0000000000000035       0x36 build/cooja/mtype398.a(rs232.o)
 .comment       0x0000000000000035       0x36 build/cooja/mtype398.a(vib-sensor.o)
 .comment       0x0000000000000035       0x36 build/cooja/mtype398.a(clock.o)
 .comment       0x0000000000000035       0x36 build/cooja/mtype398.a(cooja-log.o)
 .comment       0x0000000000000035       0x36 build/cooja/mtype398.a(cfs-cooja.o)
 .comment       0x0000000000000035       0x36 build/cooja/mtype398.a(cooja-radio.o)
 .comment       0x0000000000000035       0x36 build/cooja/mtype398.a(eeprom.o)
 .comment       0x0000000000000035       0x36 build/cooja/mtype398.a(random.o)
 .comment       0x0000000000000035       0x36 build/cooja/mtype398.a(sensors.o)
 .comment       0x0000000000000035       0x36 build/cooja/mtype398.a(leds.o)
 .comment       0x0000000000000035       0x36 build/cooja/mtype398.a(gpio-hal-arch.o)
 .comment       0x0000000000000035       0x36 build/cooja/mtype398.a(buttons.o)
 .comment       0x0000000000000035       0x36 build/cooja/mtype398.a(roller.o)
 .comment       0x0000000000000035       0x36 build/cooja/mtype398.a(brightness.o)
 .comment       0x0000000000000035       0x36 build/cooja/mtype398.a(coap-blocking-a)
 .comment       0x0000000000000035       0x36 build/cooja/mtype398.a(coap-engine.o)
 .comment       0x0000000000000035       0x36 build/cooja/mtype398.a(coap-res-well-k)
 .comment       0x0000000000000035       0x36 build/cooja/mtype398.a(coap-observe.o)
 .comment       0x0000000000000035       0x36 build/cooja/mtype398.a(coap-uip.o)
 .comment       0x0000000000000035       0x36 build/cooja/mtype398.a(coap-timer.o)
 .comment       0x0000000000000035       0x36 build/cooja/mtype398.a(coap-transactio)
 .comment       0x0000000000000035       0x36 build/cooja/mtype398.a(coap.o)
 .comment       0x0000000000000035       0x36 build/cooja/mtype398.a(contiki-main.o)
 .comment       0x0000000000000035       0x36 build/cooja/mtype398.a(autostart.o)
 .comment       0x0000000000000035       0x36 build/cooja/mtype398.a(ctimer.o)
 .comment       0x0000000000000035       0x36 build/cooja/mtype398.a(log.o)
 .comment       0x0000000000000035       0x36 build/cooja/mtype398.a(energest.o)
 .comment       0x0000000000000035       0x36 build/cooja/mtype398.a(etimer.o)
 .comment       0x0000000000000035       0x36 build/cooja/mtype398.a(node-id.o)
 .comment       0x0000000000000035       0x36 build/cooja/mtype398.a(rtimer.o)
 .comment       0x0000000000000035       0x36 build/cooja/mtype398.a(process.o)
 .comment       0x0000000000000035       0x36 build/cooja/mtype398.a(timer.o)
 .comment       0x0000000000000035       0x36 build/cooja/mtype398.a(list.o)
 .comment       0x0000000000000035       0x36 build/cooja/mtype398.a(memb.o)
 .comment       0x0000000000000035       0x36 build/cooja/mtype398.a(button-hal.o)
 .comment       0x0000000000000035       0x36 build/cooja/mtype398.a(serial-line.o)
 .comment       0x0000000000000035       0x36 build/cooja/mtype398.a(gpio-hal.o)
 .comment       0x0000000000000035       0x36 build/cooja/mtype398.a(queuebuf.o)
 .comment       0x0000000000000035       0x36 build/cooja/mtype398.a(packetbuf.o)
 .comment       0x0000000000000035       0x36 build/cooja/mtype398.a(netstack.o)
 .comment       0x0000000000000035       0x36 build/cooja/mtype398.a(linkaddr.o)
 .comment       0x0000000000000035       0x36 build/cooja/mtype398.a(csma.o)
 .comment       0x0000000000000035       0x36 build/cooja/mtype398.a(csma-output.o)
 .comment       0x0000000000000035       0x36 build/cooja/mtype398.a(uip-ds6.o)
 .comment       0x0000000000000035       0x36 build/cooja/mtype398.a(uip-udp-packet.)
 .comment       0x0000000000000035       0x36 build/cooja/mtype398.a(uip-ds6-route.o)
 .comment       0x0000000000000035       0x36 build/cooja/mtype398.a(tcpip.o)
 .comment       0x0000000000000035       0x36 build/cooja/mtype398.a(uip6.o)
 .comment       0x0000000000000035       0x36 build/cooja/mtype398.a(uip-ds6-nbr.o)
 .comment       0x0000000000000035       0x36 build/cooja/mtype398.a(uip-nd6.o)
 .comment       0x0000000000000035       0x36 build/cooja/mtype398.a(sicslowpan.o)
 .comment       0x0000000000000035       0x36 build/cooja/mtype398.a(uiplib.o)
 .comment       0x0000000000000035       0x36 build/cooja/mtype398.a(rpl.o)
 .comment       0x0000000000000035       0x36 build/cooja/mtype398.a(rpl-icmp6.o)
 .comment       0x0000000000000035       0x36 build/cooja/mtype398.a(rpl-dag-root.o)
 .comment       0x0000000000000035       0x36 build/cooja/mtype398.a(watchdog.o)
 .comment       0x0000000000000035       0x36 build/cooja/mtype398.a(int-master.o)
 .comment       0x0000000000000035       0x36 build/cooja/mtype398.a(coap-timer-defa)
 .comment       0x0000000000000035       0x36 build/cooja/mtype398.a(stimer.o)
 .comment       0x0000000000000035       0x36 build/cooja/mtype398.a(ringbuf.o)
 .comment       0x0000000000000035       0x36 build/cooja/mtype398.a(assert.o)
 .comment       0x0000000000000035       0x36 build/cooja/mtype398.a(nbr-table.o)
 .comment       0x0000000000000035       0x36 build/cooja/mtype398.a(link-stats.o)
 .comment       0x0000000000000035       0x36 build/cooja/mtype398.a(mac-sequence.o)
 .comment       0x0000000000000035       0x36 build/cooja/mtype398.a(mac.o)
 .comment       0x0000000000000035       0x36 build/cooja/mtype398.a(framer-802154.o)
 .comment       0x0000000000000035       0x36 build/cooja/mtype398.a(frame802154.o)
 .comment       0x0000000000000035       0x36 build/cooja/mtype398.a(csma-security.o)
 .comment       0x0000000000000035       0x36 build/cooja/mtype398.a(uipbuf.o)
 .comment       0x0000000000000035       0x36 build/cooja/mtype398.a(uip-icmp6.o)
 .comment       0x0000000000000035       0x36 build/cooja/mtype398.a(uip-sr.o)
 .comment       0x0000000000000035       0x36 build/cooja/mtype398.a(uip-packetqueue)
 .comment       0x0000000000000035       0x36 build/cooja/mtype398.a(rpl-nbr-policy.)
 .comment       0x0000000000000035       0x36 build/cooja/mtype398.a(rpl-neighbor.o)
 .comment       0x0000000000000035       0x36 build/cooja/mtype398.a(rpl-dag.o)
 .comment       0x0000000000000035       0x36 build/cooja/mtype398.a(rpl-timers.o)
 .comment       0x0000000000000035       0x36 build/cooja/mtype398.a(rpl-ext-header.)
 .comment       0x0000000000000035       0x36 build/cooja/mtype398.a(rpl-mrhof.o)
 .comment       0x0000000000000035       0x36 /usr/lib/gcc/i686-linux-gnu/5/crtendS.o

.debug
 *(.debug)

.line
 *(.line)

.debug_srcinfo
 *(.debug_srcinfo)

.debug_sfnames
 *(.debug_sfnames)

.debug_aranges  0x0000000000000000      0xb00
 *(.debug_aranges)
 .debug_aranges
                0x0000000000000000       0x20 device.o
 .debug_aranges
                0x0000000000000020       0x20 build/cooja/mtype398.o
 .debug_aranges
                0x0000000000000040       0x20 build/cooja/mtype398.a(simEnvChange.o)
 .debug_aranges
                0x0000000000000060       0x20 build/cooja/mtype398.a(cooja_mt.o)
 .debug_aranges
                0x0000000000000080       0x20 build/cooja/mtype398.a(cooja_mtarch.o)
 .debug_aranges
                0x00000000000000a0       0x20 build/cooja/mtype398.a(rtimer-arch.o)
 .debug_aranges
                0x00000000000000c0       0x20 build/cooja/mtype398.a(beep.o)
 .debug_aranges
                0x00000000000000e0       0x20 build/cooja/mtype398.a(leds-arch.o)
 .debug_aranges
                0x0000000000000100       0x20 build/cooja/mtype398.a(moteid.o)
 .debug_aranges
                0x0000000000000120       0x20 build/cooja/mtype398.a(pir-sensor.o)
 .debug_aranges
                0x0000000000000140       0x20 build/cooja/mtype398.a(rs232.o)
 .debug_aranges
                0x0000000000000160       0x20 build/cooja/mtype398.a(vib-sensor.o)
 .debug_aranges
                0x0000000000000180       0x20 build/cooja/mtype398.a(clock.o)
 .debug_aranges
                0x00000000000001a0       0x20 build/cooja/mtype398.a(cooja-log.o)
 .debug_aranges
                0x00000000000001c0       0x20 build/cooja/mtype398.a(cfs-cooja.o)
 .debug_aranges
                0x00000000000001e0       0x20 build/cooja/mtype398.a(cooja-radio.o)
 .debug_aranges
                0x0000000000000200       0x20 build/cooja/mtype398.a(eeprom.o)
 .debug_aranges
                0x0000000000000220       0x20 build/cooja/mtype398.a(random.o)
 .debug_aranges
                0x0000000000000240       0x20 build/cooja/mtype398.a(sensors.o)
 .debug_aranges
                0x0000000000000260       0x20 build/cooja/mtype398.a(leds.o)
 .debug_aranges
                0x0000000000000280       0x20 build/cooja/mtype398.a(gpio-hal-arch.o)
 .debug_aranges
                0x00000000000002a0       0x20 build/cooja/mtype398.a(buttons.o)
 .debug_aranges
                0x00000000000002c0       0x20 build/cooja/mtype398.a(roller.o)
 .debug_aranges
                0x00000000000002e0       0x20 build/cooja/mtype398.a(brightness.o)
 .debug_aranges
                0x0000000000000300       0x20 build/cooja/mtype398.a(coap-blocking-a)
 .debug_aranges
                0x0000000000000320       0x20 build/cooja/mtype398.a(coap-engine.o)
 .debug_aranges
                0x0000000000000340       0x20 build/cooja/mtype398.a(coap-res-well-k)
 .debug_aranges
                0x0000000000000360       0x20 build/cooja/mtype398.a(coap-observe.o)
 .debug_aranges
                0x0000000000000380       0x20 build/cooja/mtype398.a(coap-uip.o)
 .debug_aranges
                0x00000000000003a0       0x20 build/cooja/mtype398.a(coap-timer.o)
 .debug_aranges
                0x00000000000003c0       0x20 build/cooja/mtype398.a(coap-transactio)
 .debug_aranges
                0x00000000000003e0       0x20 build/cooja/mtype398.a(coap.o)
 .debug_aranges
                0x0000000000000400       0x20 build/cooja/mtype398.a(contiki-main.o)
 .debug_aranges
                0x0000000000000420       0x20 build/cooja/mtype398.a(autostart.o)
 .debug_aranges
                0x0000000000000440       0x20 build/cooja/mtype398.a(ctimer.o)
 .debug_aranges
                0x0000000000000460       0x20 build/cooja/mtype398.a(log.o)
 .debug_aranges
                0x0000000000000480       0x20 build/cooja/mtype398.a(energest.o)
 .debug_aranges
                0x00000000000004a0       0x20 build/cooja/mtype398.a(etimer.o)
 .debug_aranges
                0x00000000000004c0       0x20 build/cooja/mtype398.a(node-id.o)
 .debug_aranges
                0x00000000000004e0       0x20 build/cooja/mtype398.a(rtimer.o)
 .debug_aranges
                0x0000000000000500       0x20 build/cooja/mtype398.a(process.o)
 .debug_aranges
                0x0000000000000520       0x20 build/cooja/mtype398.a(timer.o)
 .debug_aranges
                0x0000000000000540       0x20 build/cooja/mtype398.a(list.o)
 .debug_aranges
                0x0000000000000560       0x20 build/cooja/mtype398.a(memb.o)
 .debug_aranges
                0x0000000000000580       0x20 build/cooja/mtype398.a(button-hal.o)
 .debug_aranges
                0x00000000000005a0       0x20 build/cooja/mtype398.a(serial-line.o)
 .debug_aranges
                0x00000000000005c0       0x20 build/cooja/mtype398.a(gpio-hal.o)
 .debug_aranges
                0x00000000000005e0       0x20 build/cooja/mtype398.a(queuebuf.o)
 .debug_aranges
                0x0000000000000600       0x20 build/cooja/mtype398.a(packetbuf.o)
 .debug_aranges
                0x0000000000000620       0x20 build/cooja/mtype398.a(netstack.o)
 .debug_aranges
                0x0000000000000640       0x20 build/cooja/mtype398.a(linkaddr.o)
 .debug_aranges
                0x0000000000000660       0x20 build/cooja/mtype398.a(csma.o)
 .debug_aranges
                0x0000000000000680       0x20 build/cooja/mtype398.a(csma-output.o)
 .debug_aranges
                0x00000000000006a0       0x20 build/cooja/mtype398.a(uip-ds6.o)
 .debug_aranges
                0x00000000000006c0       0x20 build/cooja/mtype398.a(uip-udp-packet.)
 .debug_aranges
                0x00000000000006e0       0x20 build/cooja/mtype398.a(uip-ds6-route.o)
 .debug_aranges
                0x0000000000000700       0x20 build/cooja/mtype398.a(tcpip.o)
 .debug_aranges
                0x0000000000000720       0x20 build/cooja/mtype398.a(uip6.o)
 .debug_aranges
                0x0000000000000740       0x20 build/cooja/mtype398.a(uip-ds6-nbr.o)
 .debug_aranges
                0x0000000000000760       0x20 build/cooja/mtype398.a(uip-nd6.o)
 .debug_aranges
                0x0000000000000780       0x20 build/cooja/mtype398.a(sicslowpan.o)
 .debug_aranges
                0x00000000000007a0       0x20 build/cooja/mtype398.a(uiplib.o)
 .debug_aranges
                0x00000000000007c0       0x20 build/cooja/mtype398.a(rpl.o)
 .debug_aranges
                0x00000000000007e0       0x20 build/cooja/mtype398.a(rpl-icmp6.o)
 .debug_aranges
                0x0000000000000800       0x20 build/cooja/mtype398.a(rpl-dag-root.o)
 .debug_aranges
                0x0000000000000820       0x20 build/cooja/mtype398.a(watchdog.o)
 .debug_aranges
                0x0000000000000840       0x20 build/cooja/mtype398.a(int-master.o)
 .debug_aranges
                0x0000000000000860       0x20 build/cooja/mtype398.a(coap-timer-defa)
 .debug_aranges
                0x0000000000000880       0x20 build/cooja/mtype398.a(stimer.o)
 .debug_aranges
                0x00000000000008a0       0x20 build/cooja/mtype398.a(ringbuf.o)
 .debug_aranges
                0x00000000000008c0       0x20 build/cooja/mtype398.a(assert.o)
 .debug_aranges
                0x00000000000008e0       0x20 build/cooja/mtype398.a(nbr-table.o)
 .debug_aranges
                0x0000000000000900       0x20 build/cooja/mtype398.a(link-stats.o)
 .debug_aranges
                0x0000000000000920       0x20 build/cooja/mtype398.a(mac-sequence.o)
 .debug_aranges
                0x0000000000000940       0x20 build/cooja/mtype398.a(mac.o)
 .debug_aranges
                0x0000000000000960       0x20 build/cooja/mtype398.a(framer-802154.o)
 .debug_aranges
                0x0000000000000980       0x20 build/cooja/mtype398.a(frame802154.o)
 .debug_aranges
                0x00000000000009a0       0x20 build/cooja/mtype398.a(csma-security.o)
 .debug_aranges
                0x00000000000009c0       0x20 build/cooja/mtype398.a(uipbuf.o)
 .debug_aranges
                0x00000000000009e0       0x20 build/cooja/mtype398.a(uip-icmp6.o)
 .debug_aranges
                0x0000000000000a00       0x20 build/cooja/mtype398.a(uip-sr.o)
 .debug_aranges
                0x0000000000000a20       0x20 build/cooja/mtype398.a(uip-packetqueue)
 .debug_aranges
                0x0000000000000a40       0x20 build/cooja/mtype398.a(rpl-nbr-policy.)
 .debug_aranges
                0x0000000000000a60       0x20 build/cooja/mtype398.a(rpl-neighbor.o)
 .debug_aranges
                0x0000000000000a80       0x20 build/cooja/mtype398.a(rpl-dag.o)
 .debug_aranges
                0x0000000000000aa0       0x20 build/cooja/mtype398.a(rpl-timers.o)
 .debug_aranges
                0x0000000000000ac0       0x20 build/cooja/mtype398.a(rpl-ext-header.)
 .debug_aranges
                0x0000000000000ae0       0x20 build/cooja/mtype398.a(rpl-mrhof.o)

.debug_pubnames
 *(.debug_pubnames)

.debug_info     0x0000000000000000    0x27206
 *(.debug_info .gnu.linkonce.wi.*)
 .debug_info    0x0000000000000000      0xb57 device.o
 .debug_info    0x0000000000000b57     0x325a build/cooja/mtype398.o
 .debug_info    0x0000000000003db1      0x15a build/cooja/mtype398.a(simEnvChange.o)
 .debug_info    0x0000000000003f0b      0x1af build/cooja/mtype398.a(cooja_mt.o)
 .debug_info    0x00000000000040ba      0x212 build/cooja/mtype398.a(cooja_mtarch.o)
 .debug_info    0x00000000000042cc      0x181 build/cooja/mtype398.a(rtimer-arch.o)
 .debug_info    0x000000000000444d      0x1fa build/cooja/mtype398.a(beep.o)
 .debug_info    0x0000000000004647      0x194 build/cooja/mtype398.a(leds-arch.o)
 .debug_info    0x00000000000047db      0x111 build/cooja/mtype398.a(moteid.o)
 .debug_info    0x00000000000048ec      0x21d build/cooja/mtype398.a(pir-sensor.o)
 .debug_info    0x0000000000004b09      0x21e build/cooja/mtype398.a(rs232.o)
 .debug_info    0x0000000000004d27      0x21d build/cooja/mtype398.a(vib-sensor.o)
 .debug_info    0x0000000000004f44      0x159 build/cooja/mtype398.a(clock.o)
 .debug_info    0x000000000000509d      0x2bb build/cooja/mtype398.a(cooja-log.o)
 .debug_info    0x0000000000005358      0x3cf build/cooja/mtype398.a(cfs-cooja.o)
 .debug_info    0x0000000000005727      0xb0a build/cooja/mtype398.a(cooja-radio.o)
 .debug_info    0x0000000000006231      0x1d5 build/cooja/mtype398.a(eeprom.o)
 .debug_info    0x0000000000006406       0xb3 build/cooja/mtype398.a(random.o)
 .debug_info    0x00000000000064b9      0x36d build/cooja/mtype398.a(sensors.o)
 .debug_info    0x0000000000006826      0x28a build/cooja/mtype398.a(leds.o)
 .debug_info    0x0000000000006ab0      0x40e build/cooja/mtype398.a(gpio-hal-arch.o)
 .debug_info    0x0000000000006ebe      0x4bc build/cooja/mtype398.a(buttons.o)
 .debug_info    0x000000000000737a      0x925 build/cooja/mtype398.a(roller.o)
 .debug_info    0x0000000000007c9f      0x910 build/cooja/mtype398.a(brightness.o)
 .debug_info    0x00000000000085af      0x836 build/cooja/mtype398.a(coap-blocking-a)
 .debug_info    0x0000000000008de5      0xe93 build/cooja/mtype398.a(coap-engine.o)
 .debug_info    0x0000000000009c78      0x8a4 build/cooja/mtype398.a(coap-res-well-k)
 .debug_info    0x000000000000a51c      0xdd0 build/cooja/mtype398.a(coap-observe.o)
 .debug_info    0x000000000000b2ec      0xe48 build/cooja/mtype398.a(coap-uip.o)
 .debug_info    0x000000000000c134      0x2f1 build/cooja/mtype398.a(coap-timer.o)
 .debug_info    0x000000000000c425      0x862 build/cooja/mtype398.a(coap-transactio)
 .debug_info    0x000000000000cc87     0x14c2 build/cooja/mtype398.a(coap.o)
 .debug_info    0x000000000000e149      0xf52 build/cooja/mtype398.a(contiki-main.o)
 .debug_info    0x000000000000f09b      0x1ac build/cooja/mtype398.a(autostart.o)
 .debug_info    0x000000000000f247      0x473 build/cooja/mtype398.a(ctimer.o)
 .debug_info    0x000000000000f6ba      0x483 build/cooja/mtype398.a(log.o)
 .debug_info    0x000000000000fb3d       0xbc build/cooja/mtype398.a(energest.o)
 .debug_info    0x000000000000fbf9      0x49f build/cooja/mtype398.a(etimer.o)
 .debug_info    0x0000000000010098       0xfb build/cooja/mtype398.a(node-id.o)
 .debug_info    0x0000000000010193      0x1c1 build/cooja/mtype398.a(rtimer.o)
 .debug_info    0x0000000000010354      0x4ab build/cooja/mtype398.a(process.o)
 .debug_info    0x00000000000107ff      0x17a build/cooja/mtype398.a(timer.o)
 .debug_info    0x0000000000010979      0x38b build/cooja/mtype398.a(list.o)
 .debug_info    0x0000000000010d04      0x1e4 build/cooja/mtype398.a(memb.o)
 .debug_info    0x0000000000010ee8      0x60c build/cooja/mtype398.a(button-hal.o)
 .debug_info    0x00000000000114f4      0x2de build/cooja/mtype398.a(serial-line.o)
 .debug_info    0x00000000000117d2      0x25d build/cooja/mtype398.a(gpio-hal.o)
 .debug_info    0x0000000000011a2f      0x570 build/cooja/mtype398.a(queuebuf.o)
 .debug_info    0x0000000000011f9f      0x553 build/cooja/mtype398.a(packetbuf.o)
 .debug_info    0x00000000000124f2      0x56a build/cooja/mtype398.a(netstack.o)
 .debug_info    0x0000000000012a5c      0x18b build/cooja/mtype398.a(linkaddr.o)
 .debug_info    0x0000000000012be7      0x68e build/cooja/mtype398.a(csma.o)
 .debug_info    0x0000000000013275      0xc80 build/cooja/mtype398.a(csma-output.o)
 .debug_info    0x0000000000013ef5      0xae8 build/cooja/mtype398.a(uip-ds6.o)
 .debug_info    0x00000000000149dd      0x37a build/cooja/mtype398.a(uip-udp-packet.)
 .debug_info    0x0000000000014d57      0x881 build/cooja/mtype398.a(uip-ds6-route.o)
 .debug_info    0x00000000000155d8      0xf3d build/cooja/mtype398.a(tcpip.o)
 .debug_info    0x0000000000016515     0x116c build/cooja/mtype398.a(uip6.o)
 .debug_info    0x0000000000017681      0xb97 build/cooja/mtype398.a(uip-ds6-nbr.o)
 .debug_info    0x0000000000018218      0x7fb build/cooja/mtype398.a(uip-nd6.o)
 .debug_info    0x0000000000018a13     0x1723 build/cooja/mtype398.a(sicslowpan.o)
 .debug_info    0x000000000001a136      0x30b build/cooja/mtype398.a(uiplib.o)
 .debug_info    0x000000000001a441     0x10bb build/cooja/mtype398.a(rpl.o)
 .debug_info    0x000000000001b4fc     0x1065 build/cooja/mtype398.a(rpl-icmp6.o)
 .debug_info    0x000000000001c561      0xb33 build/cooja/mtype398.a(rpl-dag-root.o)
 .debug_info    0x000000000001d094       0xda build/cooja/mtype398.a(watchdog.o)
 .debug_info    0x000000000001d16e      0x119 build/cooja/mtype398.a(int-master.o)
 .debug_info    0x000000000001d287      0x330 build/cooja/mtype398.a(coap-timer-defa)
 .debug_info    0x000000000001d5b7      0x187 build/cooja/mtype398.a(stimer.o)
 .debug_info    0x000000000001d73e      0x1b8 build/cooja/mtype398.a(ringbuf.o)
 .debug_info    0x000000000001d8f6       0xb3 build/cooja/mtype398.a(assert.o)
 .debug_info    0x000000000001d9a9      0x95a build/cooja/mtype398.a(nbr-table.o)
 .debug_info    0x000000000001e303      0x67c build/cooja/mtype398.a(link-stats.o)
 .debug_info    0x000000000001e97f      0x213 build/cooja/mtype398.a(mac-sequence.o)
 .debug_info    0x000000000001eb92       0xf3 build/cooja/mtype398.a(mac.o)
 .debug_info    0x000000000001ec85      0x512 build/cooja/mtype398.a(framer-802154.o)
 .debug_info    0x000000000001f197      0x738 build/cooja/mtype398.a(frame802154.o)
 .debug_info    0x000000000001f8cf      0x166 build/cooja/mtype398.a(csma-security.o)
 .debug_info    0x000000000001fa35      0x575 build/cooja/mtype398.a(uipbuf.o)
 .debug_info    0x000000000001ffaa      0xd4a build/cooja/mtype398.a(uip-icmp6.o)
 .debug_info    0x0000000000020cf4      0xb31 build/cooja/mtype398.a(uip-sr.o)
 .debug_info    0x0000000000021825      0x477 build/cooja/mtype398.a(uip-packetqueue)
 .debug_info    0x0000000000021c9c      0xc0e build/cooja/mtype398.a(rpl-nbr-policy.)
 .debug_info    0x00000000000228aa      0xe69 build/cooja/mtype398.a(rpl-neighbor.o)
 .debug_info    0x0000000000023713      0xfe3 build/cooja/mtype398.a(rpl-dag.o)
 .debug_info    0x00000000000246f6      0xcbb build/cooja/mtype398.a(rpl-timers.o)
 .debug_info    0x00000000000253b1     0x1496 build/cooja/mtype398.a(rpl-ext-header.)
 .debug_info    0x0000000000026847      0x9bf build/cooja/mtype398.a(rpl-mrhof.o)

.debug_abbrev   0x0000000000000000     0x91df
 *(.debug_abbrev)
 .debug_abbrev  0x0000000000000000      0x1fe device.o
 .debug_abbrev  0x00000000000001fe      0x27e build/cooja/mtype398.o
 .debug_abbrev  0x000000000000047c       0xc3 build/cooja/mtype398.a(simEnvChange.o)
 .debug_abbrev  0x000000000000053f       0xe6 build/cooja/mtype398.a(cooja_mt.o)
 .debug_abbrev  0x0000000000000625      0x11e build/cooja/mtype398.a(cooja_mtarch.o)
 .debug_abbrev  0x0000000000000743       0xeb build/cooja/mtype398.a(rtimer-arch.o)
 .debug_abbrev  0x000000000000082e       0xe3 build/cooja/mtype398.a(beep.o)
 .debug_abbrev  0x0000000000000911       0xe0 build/cooja/mtype398.a(leds-arch.o)
 .debug_abbrev  0x00000000000009f1       0x9c build/cooja/mtype398.a(moteid.o)
 .debug_abbrev  0x0000000000000a8d       0xe6 build/cooja/mtype398.a(pir-sensor.o)
 .debug_abbrev  0x0000000000000b73      0x14a build/cooja/mtype398.a(rs232.o)
 .debug_abbrev  0x0000000000000cbd       0xe6 build/cooja/mtype398.a(vib-sensor.o)
 .debug_abbrev  0x0000000000000da3       0xee build/cooja/mtype398.a(clock.o)
 .debug_abbrev  0x0000000000000e91      0x141 build/cooja/mtype398.a(cooja-log.o)
 .debug_abbrev  0x0000000000000fd2      0x139 build/cooja/mtype398.a(cfs-cooja.o)
 .debug_abbrev  0x000000000000110b      0x2ef build/cooja/mtype398.a(cooja-radio.o)
 .debug_abbrev  0x00000000000013fa       0xf5 build/cooja/mtype398.a(eeprom.o)
 .debug_abbrev  0x00000000000014ef       0x6d build/cooja/mtype398.a(random.o)
 .debug_abbrev  0x000000000000155c      0x1c2 build/cooja/mtype398.a(sensors.o)
 .debug_abbrev  0x000000000000171e       0xfc build/cooja/mtype398.a(leds.o)
 .debug_abbrev  0x000000000000181a      0x115 build/cooja/mtype398.a(gpio-hal-arch.o)
 .debug_abbrev  0x000000000000192f      0x16f build/cooja/mtype398.a(buttons.o)
 .debug_abbrev  0x0000000000001a9e      0x181 build/cooja/mtype398.a(roller.o)
 .debug_abbrev  0x0000000000001c1f      0x1b3 build/cooja/mtype398.a(brightness.o)
 .debug_abbrev  0x0000000000001dd2      0x1c3 build/cooja/mtype398.a(coap-blocking-a)
 .debug_abbrev  0x0000000000001f95      0x2d5 build/cooja/mtype398.a(coap-engine.o)
 .debug_abbrev  0x000000000000226a      0x169 build/cooja/mtype398.a(coap-res-well-k)
 .debug_abbrev  0x00000000000023d3      0x234 build/cooja/mtype398.a(coap-observe.o)
 .debug_abbrev  0x0000000000002607      0x378 build/cooja/mtype398.a(coap-uip.o)
 .debug_abbrev  0x000000000000297f      0x155 build/cooja/mtype398.a(coap-timer.o)
 .debug_abbrev  0x0000000000002ad4      0x1c4 build/cooja/mtype398.a(coap-transactio)
 .debug_abbrev  0x0000000000002c98      0x23c build/cooja/mtype398.a(coap.o)
 .debug_abbrev  0x0000000000002ed4      0x1ef build/cooja/mtype398.a(contiki-main.o)
 .debug_abbrev  0x00000000000030c3       0xfb build/cooja/mtype398.a(autostart.o)
 .debug_abbrev  0x00000000000031be      0x1a1 build/cooja/mtype398.a(ctimer.o)
 .debug_abbrev  0x000000000000335f      0x159 build/cooja/mtype398.a(log.o)
 .debug_abbrev  0x00000000000034b8       0x69 build/cooja/mtype398.a(energest.o)
 .debug_abbrev  0x0000000000003521      0x1f8 build/cooja/mtype398.a(etimer.o)
 .debug_abbrev  0x0000000000003719       0x9d build/cooja/mtype398.a(node-id.o)
 .debug_abbrev  0x00000000000037b6      0x126 build/cooja/mtype398.a(rtimer.o)
 .debug_abbrev  0x00000000000038dc      0x244 build/cooja/mtype398.a(process.o)
 .debug_abbrev  0x0000000000003b20       0xdb build/cooja/mtype398.a(timer.o)
 .debug_abbrev  0x0000000000003bfb      0x136 build/cooja/mtype398.a(list.o)
 .debug_abbrev  0x0000000000003d31       0xe4 build/cooja/mtype398.a(memb.o)
 .debug_abbrev  0x0000000000003e15      0x1ea build/cooja/mtype398.a(button-hal.o)
 .debug_abbrev  0x0000000000003fff      0x190 build/cooja/mtype398.a(serial-line.o)
 .debug_abbrev  0x000000000000418f       0xd4 build/cooja/mtype398.a(gpio-hal.o)
 .debug_abbrev  0x0000000000004263      0x1a6 build/cooja/mtype398.a(queuebuf.o)
 .debug_abbrev  0x0000000000004409      0x1da build/cooja/mtype398.a(packetbuf.o)
 .debug_abbrev  0x00000000000045e3      0x1d5 build/cooja/mtype398.a(netstack.o)
 .debug_abbrev  0x00000000000047b8       0xf2 build/cooja/mtype398.a(linkaddr.o)
 .debug_abbrev  0x00000000000048aa      0x1ff build/cooja/mtype398.a(csma.o)
 .debug_abbrev  0x0000000000004aa9      0x269 build/cooja/mtype398.a(csma-output.o)
 .debug_abbrev  0x0000000000004d12      0x272 build/cooja/mtype398.a(uip-ds6.o)
 .debug_abbrev  0x0000000000004f84      0x195 build/cooja/mtype398.a(uip-udp-packet.)
 .debug_abbrev  0x0000000000005119      0x2b0 build/cooja/mtype398.a(uip-ds6-route.o)
 .debug_abbrev  0x00000000000053c9      0x3a7 build/cooja/mtype398.a(tcpip.o)
 .debug_abbrev  0x0000000000005770      0x2cc build/cooja/mtype398.a(uip6.o)
 .debug_abbrev  0x0000000000005a3c      0x295 build/cooja/mtype398.a(uip-ds6-nbr.o)
 .debug_abbrev  0x0000000000005cd1      0x232 build/cooja/mtype398.a(uip-nd6.o)
 .debug_abbrev  0x0000000000005f03      0x2e2 build/cooja/mtype398.a(sicslowpan.o)
 .debug_abbrev  0x00000000000061e5      0x11d build/cooja/mtype398.a(uiplib.o)
 .debug_abbrev  0x0000000000006302      0x2d2 build/cooja/mtype398.a(rpl.o)
 .debug_abbrev  0x00000000000065d4      0x303 build/cooja/mtype398.a(rpl-icmp6.o)
 .debug_abbrev  0x00000000000068d7      0x21b build/cooja/mtype398.a(rpl-dag-root.o)
 .debug_abbrev  0x0000000000006af2       0x6b build/cooja/mtype398.a(watchdog.o)
 .debug_abbrev  0x0000000000006b5d       0xcc build/cooja/mtype398.a(int-master.o)
 .debug_abbrev  0x0000000000006c29      0x184 build/cooja/mtype398.a(coap-timer-defa)
 .debug_abbrev  0x0000000000006dad       0xbf build/cooja/mtype398.a(stimer.o)
 .debug_abbrev  0x0000000000006e6c       0xdb build/cooja/mtype398.a(ringbuf.o)
 .debug_abbrev  0x0000000000006f47       0x61 build/cooja/mtype398.a(assert.o)
 .debug_abbrev  0x0000000000006fa8      0x201 build/cooja/mtype398.a(nbr-table.o)
 .debug_abbrev  0x00000000000071a9      0x22b build/cooja/mtype398.a(link-stats.o)
 .debug_abbrev  0x00000000000073d4       0xed build/cooja/mtype398.a(mac-sequence.o)
 .debug_abbrev  0x00000000000074c1       0x8d build/cooja/mtype398.a(mac.o)
 .debug_abbrev  0x000000000000754e      0x16c build/cooja/mtype398.a(framer-802154.o)
 .debug_abbrev  0x00000000000076ba      0x215 build/cooja/mtype398.a(frame802154.o)
 .debug_abbrev  0x00000000000078cf       0xa4 build/cooja/mtype398.a(csma-security.o)
 .debug_abbrev  0x0000000000007973      0x173 build/cooja/mtype398.a(uipbuf.o)
 .debug_abbrev  0x0000000000007ae6      0x29a build/cooja/mtype398.a(uip-icmp6.o)
 .debug_abbrev  0x0000000000007d80      0x24e build/cooja/mtype398.a(uip-sr.o)
 .debug_abbrev  0x0000000000007fce      0x1d4 build/cooja/mtype398.a(uip-packetqueue)
 .debug_abbrev  0x00000000000081a2      0x25f build/cooja/mtype398.a(rpl-nbr-policy.)
 .debug_abbrev  0x0000000000008401      0x31d build/cooja/mtype398.a(rpl-neighbor.o)
 .debug_abbrev  0x000000000000871e      0x34c build/cooja/mtype398.a(rpl-dag.o)
 .debug_abbrev  0x0000000000008a6a      0x297 build/cooja/mtype398.a(rpl-timers.o)
 .debug_abbrev  0x0000000000008d01      0x2f9 build/cooja/mtype398.a(rpl-ext-header.)
 .debug_abbrev  0x0000000000008ffa      0x1e5 build/cooja/mtype398.a(rpl-mrhof.o)

.debug_line     0x0000000000000000     0xa112
 *(.debug_line .debug_line.* .debug_line_end)
 .debug_line    0x0000000000000000      0x27e device.o
 .debug_line    0x000000000000027e      0x308 build/cooja/mtype398.o
 .debug_line    0x0000000000000586       0xec build/cooja/mtype398.a(simEnvChange.o)
 .debug_line    0x0000000000000672       0xcb build/cooja/mtype398.a(cooja_mt.o)
 .debug_line    0x000000000000073d       0xc5 build/cooja/mtype398.a(cooja_mtarch.o)
 .debug_line    0x0000000000000802       0xd7 build/cooja/mtype398.a(rtimer-arch.o)
 .debug_line    0x00000000000008d9       0xdb build/cooja/mtype398.a(beep.o)
 .debug_line    0x00000000000009b4       0xe1 build/cooja/mtype398.a(leds-arch.o)
 .debug_line    0x0000000000000a95       0x95 build/cooja/mtype398.a(moteid.o)
 .debug_line    0x0000000000000b2a       0xce build/cooja/mtype398.a(pir-sensor.o)
 .debug_line    0x0000000000000bf8       0xd6 build/cooja/mtype398.a(rs232.o)
 .debug_line    0x0000000000000cce       0xce build/cooja/mtype398.a(vib-sensor.o)
 .debug_line    0x0000000000000d9c       0xcc build/cooja/mtype398.a(clock.o)
 .debug_line    0x0000000000000e68      0x125 build/cooja/mtype398.a(cooja-log.o)
 .debug_line    0x0000000000000f8d      0x11b build/cooja/mtype398.a(cfs-cooja.o)
 .debug_line    0x00000000000010a8      0x298 build/cooja/mtype398.a(cooja-radio.o)
 .debug_line    0x0000000000001340       0xcd build/cooja/mtype398.a(eeprom.o)
 .debug_line    0x000000000000140d       0x4d build/cooja/mtype398.a(random.o)
 .debug_line    0x000000000000145a      0x120 build/cooja/mtype398.a(sensors.o)
 .debug_line    0x000000000000157a      0x125 build/cooja/mtype398.a(leds.o)
 .debug_line    0x000000000000169f      0x160 build/cooja/mtype398.a(gpio-hal-arch.o)
 .debug_line    0x00000000000017ff      0x191 build/cooja/mtype398.a(buttons.o)
 .debug_line    0x0000000000001990      0x189 build/cooja/mtype398.a(roller.o)
 .debug_line    0x0000000000001b19      0x17e build/cooja/mtype398.a(brightness.o)
 .debug_line    0x0000000000001c97      0x1f9 build/cooja/mtype398.a(coap-blocking-a)
 .debug_line    0x0000000000001e90      0x34b build/cooja/mtype398.a(coap-engine.o)
 .debug_line    0x00000000000021db      0x20b build/cooja/mtype398.a(coap-res-well-k)
 .debug_line    0x00000000000023e6      0x302 build/cooja/mtype398.a(coap-observe.o)
 .debug_line    0x00000000000026e8      0x379 build/cooja/mtype398.a(coap-uip.o)
 .debug_line    0x0000000000002a61      0x109 build/cooja/mtype398.a(coap-timer.o)
 .debug_line    0x0000000000002b6a      0x1d8 build/cooja/mtype398.a(coap-transactio)
 .debug_line    0x0000000000002d42      0x55a build/cooja/mtype398.a(coap.o)
 .debug_line    0x000000000000329c      0x3a5 build/cooja/mtype398.a(contiki-main.o)
 .debug_line    0x0000000000003641       0x9a build/cooja/mtype398.a(autostart.o)
 .debug_line    0x00000000000036db      0x178 build/cooja/mtype398.a(ctimer.o)
 .debug_line    0x0000000000003853      0x161 build/cooja/mtype398.a(log.o)
 .debug_line    0x00000000000039b4       0x6a build/cooja/mtype398.a(energest.o)
 .debug_line    0x0000000000003a1e      0x19e build/cooja/mtype398.a(etimer.o)
 .debug_line    0x0000000000003bbc       0x84 build/cooja/mtype398.a(node-id.o)
 .debug_line    0x0000000000003c40       0x8c build/cooja/mtype398.a(rtimer.o)
 .debug_line    0x0000000000003ccc      0x184 build/cooja/mtype398.a(process.o)
 .debug_line    0x0000000000003e50       0xa1 build/cooja/mtype398.a(timer.o)
 .debug_line    0x0000000000003ef1      0x116 build/cooja/mtype398.a(list.o)
 .debug_line    0x0000000000004007       0xbf build/cooja/mtype398.a(memb.o)
 .debug_line    0x00000000000040c6      0x20e build/cooja/mtype398.a(button-hal.o)
 .debug_line    0x00000000000042d4      0x127 build/cooja/mtype398.a(serial-line.o)
 .debug_line    0x00000000000043fb       0xbe build/cooja/mtype398.a(gpio-hal.o)
 .debug_line    0x00000000000044b9       0xf4 build/cooja/mtype398.a(queuebuf.o)
 .debug_line    0x00000000000045ad      0x10f build/cooja/mtype398.a(packetbuf.o)
 .debug_line    0x00000000000046bc      0x129 build/cooja/mtype398.a(netstack.o)
 .debug_line    0x00000000000047e5       0x7a build/cooja/mtype398.a(linkaddr.o)
 .debug_line    0x000000000000485f      0x19c build/cooja/mtype398.a(csma.o)
 .debug_line    0x00000000000049fb      0x371 build/cooja/mtype398.a(csma-output.o)
 .debug_line    0x0000000000004d6c      0x351 build/cooja/mtype398.a(uip-ds6.o)
 .debug_line    0x00000000000050bd       0xd8 build/cooja/mtype398.a(uip-udp-packet.)
 .debug_line    0x0000000000005195      0x224 build/cooja/mtype398.a(uip-ds6-route.o)
 .debug_line    0x00000000000053b9      0x334 build/cooja/mtype398.a(tcpip.o)
 .debug_line    0x00000000000056ed      0x586 build/cooja/mtype398.a(uip6.o)
 .debug_line    0x0000000000005c73      0x290 build/cooja/mtype398.a(uip-ds6-nbr.o)
 .debug_line    0x0000000000005f03      0x2bb build/cooja/mtype398.a(uip-nd6.o)
 .debug_line    0x00000000000061be      0x9dc build/cooja/mtype398.a(sicslowpan.o)
 .debug_line    0x0000000000006b9a      0x1ce build/cooja/mtype398.a(uiplib.o)
 .debug_line    0x0000000000006d68      0x300 build/cooja/mtype398.a(rpl.o)
 .debug_line    0x0000000000007068      0x419 build/cooja/mtype398.a(rpl-icmp6.o)
 .debug_line    0x0000000000007481      0x1e0 build/cooja/mtype398.a(rpl-dag-root.o)
 .debug_line    0x0000000000007661       0x9b build/cooja/mtype398.a(watchdog.o)
 .debug_line    0x00000000000076fc       0xa1 build/cooja/mtype398.a(int-master.o)
 .debug_line    0x000000000000779d      0x15c build/cooja/mtype398.a(coap-timer-defa)
 .debug_line    0x00000000000078f9       0x77 build/cooja/mtype398.a(stimer.o)
 .debug_line    0x0000000000007970       0x9a build/cooja/mtype398.a(ringbuf.o)
 .debug_line    0x0000000000007a0a       0x4b build/cooja/mtype398.a(assert.o)
 .debug_line    0x0000000000007a55      0x249 build/cooja/mtype398.a(nbr-table.o)
 .debug_line    0x0000000000007c9e      0x20c build/cooja/mtype398.a(link-stats.o)
 .debug_line    0x0000000000007eaa      0x117 build/cooja/mtype398.a(mac-sequence.o)
 .debug_line    0x0000000000007fc1       0x56 build/cooja/mtype398.a(mac.o)
 .debug_line    0x0000000000008017      0x183 build/cooja/mtype398.a(framer-802154.o)
 .debug_line    0x000000000000819a      0x2c1 build/cooja/mtype398.a(frame802154.o)
 .debug_line    0x000000000000845b       0xb8 build/cooja/mtype398.a(csma-security.o)
 .debug_line    0x0000000000008513      0x14c build/cooja/mtype398.a(uipbuf.o)
 .debug_line    0x000000000000865f      0x2e9 build/cooja/mtype398.a(uip-icmp6.o)
 .debug_line    0x0000000000008948      0x2f7 build/cooja/mtype398.a(uip-sr.o)
 .debug_line    0x0000000000008c3f      0x16a build/cooja/mtype398.a(uip-packetqueue)
 .debug_line    0x0000000000008da9      0x1e7 build/cooja/mtype398.a(rpl-nbr-policy.)
 .debug_line    0x0000000000008f90      0x37f build/cooja/mtype398.a(rpl-neighbor.o)
 .debug_line    0x000000000000930f      0x419 build/cooja/mtype398.a(rpl-dag.o)
 .debug_line    0x0000000000009728      0x2ff build/cooja/mtype398.a(rpl-timers.o)
 .debug_line    0x0000000000009a27      0x483 build/cooja/mtype398.a(rpl-ext-header.)
 .debug_line    0x0000000000009eaa      0x268 build/cooja/mtype398.a(rpl-mrhof.o)

.debug_frame
 *(.debug_frame)

.debug_str      0x0000000000000000     0x9a74
 *(.debug_str)
 .debug_str     0x0000000000000000      0x903 device.o
                                        0xb18 (size before relaxing)
 .debug_str     0x0000000000000903     0x1762 build/cooja/mtype398.o
                                       0x1977 (size before relaxing)
 .debug_str     0x0000000000002065       0x30 build/cooja/mtype398.a(simEnvChange.o)
                                        0x214 (size before relaxing)
 .debug_str     0x0000000000002095       0x58 build/cooja/mtype398.a(cooja_mt.o)
                                        0x215 (size before relaxing)
 .debug_str     0x00000000000020ed       0x97 build/cooja/mtype398.a(cooja_mtarch.o)
                                        0x21a (size before relaxing)
 .debug_str     0x0000000000002184      0x10f build/cooja/mtype398.a(rtimer-arch.o)
                                        0x267 (size before relaxing)
 .debug_str     0x0000000000002293       0xc6 build/cooja/mtype398.a(beep.o)
                                        0x25e (size before relaxing)
 .debug_str     0x0000000000002359       0x9e build/cooja/mtype398.a(leds-arch.o)
                                        0x26b (size before relaxing)
 .debug_str     0x00000000000023f7       0x49 build/cooja/mtype398.a(moteid.o)
                                        0x214 (size before relaxing)
 .debug_str     0x0000000000002440       0x57 build/cooja/mtype398.a(pir-sensor.o)
                                        0x24b (size before relaxing)
 .debug_str     0x0000000000002497       0xc3 build/cooja/mtype398.a(rs232.o)
                                        0x29f (size before relaxing)
 .debug_str     0x000000000000255a       0x57 build/cooja/mtype398.a(vib-sensor.o)
                                        0x24b (size before relaxing)
 .debug_str     0x00000000000025b1       0x73 build/cooja/mtype398.a(clock.o)
                                        0x240 (size before relaxing)
 .debug_str     0x0000000000002624       0xd9 build/cooja/mtype398.a(cooja-log.o)
                                        0x2cb (size before relaxing)
 .debug_str     0x00000000000026fd      0x10e build/cooja/mtype398.a(cfs-cooja.o)
                                        0x2e1 (size before relaxing)
 .debug_str     0x000000000000280b      0x77a build/cooja/mtype398.a(cooja-radio.o)
                                        0xa85 (size before relaxing)
 .debug_str     0x0000000000002f85       0x9b build/cooja/mtype398.a(eeprom.o)
                                        0x261 (size before relaxing)
 .debug_str     0x0000000000003020       0x36 build/cooja/mtype398.a(random.o)
                                        0x179 (size before relaxing)
 .debug_str     0x0000000000003056       0x9c build/cooja/mtype398.a(sensors.o)
                                        0x2a9 (size before relaxing)
 .debug_str     0x00000000000030f2       0x8d build/cooja/mtype398.a(leds.o)
                                        0x234 (size before relaxing)
 .debug_str     0x000000000000317f      0x2a8 build/cooja/mtype398.a(gpio-hal-arch.o)
                                        0x426 (size before relaxing)
 .debug_str     0x0000000000003427      0x10f build/cooja/mtype398.a(buttons.o)
                                        0x3e2 (size before relaxing)
 .debug_str     0x0000000000003536      0x3da build/cooja/mtype398.a(roller.o)
                                        0xbc8 (size before relaxing)
 .debug_str     0x0000000000003910       0x63 build/cooja/mtype398.a(brightness.o)
                                        0xbfd (size before relaxing)
 .debug_str     0x0000000000003973       0xb7 build/cooja/mtype398.a(coap-blocking-a)
                                        0x79e (size before relaxing)
 .debug_str     0x0000000000003a2a      0x321 build/cooja/mtype398.a(coap-engine.o)
                                        0xe23 (size before relaxing)
 .debug_str     0x0000000000003d4b       0x6b build/cooja/mtype398.a(coap-res-well-k)
                                        0xc00 (size before relaxing)
 .debug_str     0x0000000000003db6      0x1f6 build/cooja/mtype398.a(coap-observe.o)
                                        0xd11 (size before relaxing)
 .debug_str     0x0000000000003fac      0x457 build/cooja/mtype398.a(coap-uip.o)
                                        0xa14 (size before relaxing)
 .debug_str     0x0000000000004403       0xba build/cooja/mtype398.a(coap-timer.o)
                                        0x2cb (size before relaxing)
 .debug_str     0x00000000000044bd      0x11f build/cooja/mtype398.a(coap-transactio)
                                        0x84e (size before relaxing)
 .debug_str     0x00000000000045dc      0x5e1 build/cooja/mtype398.a(coap.o)
                                        0xe7d (size before relaxing)
 .debug_str     0x0000000000004bbd      0x4cd build/cooja/mtype398.a(contiki-main.o)
                                        0xd52 (size before relaxing)
 .debug_str     0x000000000000508a       0x3b build/cooja/mtype398.a(autostart.o)
                                        0x1d5 (size before relaxing)
 .debug_str     0x00000000000050c5       0xc6 build/cooja/mtype398.a(ctimer.o)
                                        0x2d6 (size before relaxing)
 .debug_str     0x000000000000518b      0x1b4 build/cooja/mtype398.a(log.o)
                                        0x389 (size before relaxing)
 .debug_str     0x000000000000533f       0x50 build/cooja/mtype398.a(energest.o)
                                        0x19c (size before relaxing)
 .debug_str     0x000000000000538f      0x139 build/cooja/mtype398.a(etimer.o)
                                        0x349 (size before relaxing)
 .debug_str     0x00000000000054c8       0x27 build/cooja/mtype398.a(node-id.o)
                                        0x199 (size before relaxing)
 .debug_str     0x00000000000054ef       0xb3 build/cooja/mtype398.a(rtimer.o)
                                        0x220 (size before relaxing)
 .debug_str     0x00000000000055a2      0x157 build/cooja/mtype398.a(process.o)
                                        0x30b (size before relaxing)
 .debug_str     0x00000000000056f9       0x18 build/cooja/mtype398.a(timer.o)
                                        0x1c4 (size before relaxing)
 .debug_str     0x0000000000005711       0xb7 build/cooja/mtype398.a(list.o)
                                        0x21b (size before relaxing)
 .debug_str     0x00000000000057c8       0x5d build/cooja/mtype398.a(memb.o)
                                        0x1b5 (size before relaxing)
 .debug_str     0x0000000000005825      0x1cc build/cooja/mtype398.a(button-hal.o)
                                        0x4ea (size before relaxing)
 .debug_str     0x00000000000059f1       0x9d build/cooja/mtype398.a(serial-line.o)
                                        0x294 (size before relaxing)
 .debug_str     0x0000000000005a8e       0xef build/cooja/mtype398.a(gpio-hal.o)
                                        0x2ea (size before relaxing)
 .debug_str     0x0000000000005b7d      0x1cd build/cooja/mtype398.a(queuebuf.o)
                                        0x50a (size before relaxing)
 .debug_str     0x0000000000005d4a      0x1b7 build/cooja/mtype398.a(packetbuf.o)
                                        0x547 (size before relaxing)
 .debug_str     0x0000000000005f01      0x16a build/cooja/mtype398.a(netstack.o)
                                        0x475 (size before relaxing)
 .debug_str     0x000000000000606b       0x53 build/cooja/mtype398.a(linkaddr.o)
                                        0x1d6 (size before relaxing)
 .debug_str     0x00000000000060be       0x92 build/cooja/mtype398.a(csma.o)
                                        0x7cd (size before relaxing)
 .debug_str     0x0000000000006150      0x285 build/cooja/mtype398.a(csma-output.o)
                                        0x86d (size before relaxing)
 .debug_str     0x00000000000063d5      0x3f2 build/cooja/mtype398.a(uip-ds6.o)
                                        0x707 (size before relaxing)
 .debug_str     0x00000000000067c7       0x77 build/cooja/mtype398.a(uip-udp-packet.)
                                        0x2a7 (size before relaxing)
 .debug_str     0x000000000000683e      0x225 build/cooja/mtype398.a(uip-ds6-route.o)
                                        0x5fa (size before relaxing)
 .debug_str     0x0000000000006a63      0x2b2 build/cooja/mtype398.a(tcpip.o)
                                        0xa09 (size before relaxing)
 .debug_str     0x0000000000006d15      0x1fa build/cooja/mtype398.a(uip6.o)
                                        0xa47 (size before relaxing)
 .debug_str     0x0000000000006f0f      0x1ff build/cooja/mtype398.a(uip-ds6-nbr.o)
                                        0x8a6 (size before relaxing)
 .debug_str     0x000000000000710e      0x120 build/cooja/mtype398.a(uip-nd6.o)
                                        0x613 (size before relaxing)
 .debug_str     0x000000000000722e      0x58c build/cooja/mtype398.a(sicslowpan.o)
                                        0xf44 (size before relaxing)
 .debug_str     0x00000000000077ba       0x93 build/cooja/mtype398.a(uiplib.o)
                                        0x220 (size before relaxing)
 .debug_str     0x000000000000784d      0x2b5 build/cooja/mtype398.a(rpl.o)
                                        0xbbb (size before relaxing)
 .debug_str     0x0000000000007b02      0x1e0 build/cooja/mtype398.a(rpl-icmp6.o)
                                        0xc7b (size before relaxing)
 .debug_str     0x0000000000007ce2       0xa4 build/cooja/mtype398.a(rpl-dag-root.o)
                                        0x86c (size before relaxing)
 .debug_str     0x0000000000007d86       0x79 build/cooja/mtype398.a(watchdog.o)
                                        0x1cf (size before relaxing)
 .debug_str     0x0000000000007dff       0x8b build/cooja/mtype398.a(int-master.o)
                                        0x1f8 (size before relaxing)
 .debug_str     0x0000000000007e8a       0x70 build/cooja/mtype398.a(coap-timer-defa)
                                        0x2b8 (size before relaxing)
 .debug_str     0x0000000000007efa       0x6f build/cooja/mtype398.a(stimer.o)
                                        0x1c8 (size before relaxing)
 .debug_str     0x0000000000007f69       0x5d build/cooja/mtype398.a(ringbuf.o)
                                        0x1d7 (size before relaxing)
 .debug_str     0x0000000000007fc6       0x29 build/cooja/mtype398.a(assert.o)
                                        0x171 (size before relaxing)
 .debug_str     0x0000000000007fef      0x26f build/cooja/mtype398.a(nbr-table.o)
                                        0x5bd (size before relaxing)
 .debug_str     0x000000000000825e      0x12c build/cooja/mtype398.a(link-stats.o)
                                        0x6d1 (size before relaxing)
 .debug_str     0x000000000000838a       0x73 build/cooja/mtype398.a(mac-sequence.o)
                                        0x397 (size before relaxing)
 .debug_str     0x00000000000083fd       0x38 build/cooja/mtype398.a(mac.o)
                                        0x1a2 (size before relaxing)
 .debug_str     0x0000000000008435      0x230 build/cooja/mtype398.a(framer-802154.o)
                                        0x5df (size before relaxing)
 .debug_str     0x0000000000008665      0x1f5 build/cooja/mtype398.a(frame802154.o)
                                        0x58e (size before relaxing)
 .debug_str     0x000000000000885a       0x5e build/cooja/mtype398.a(csma-security.o)
                                        0x36f (size before relaxing)
 .debug_str     0x00000000000088b8      0x1ad build/cooja/mtype398.a(uipbuf.o)
                                        0x46d (size before relaxing)
 .debug_str     0x0000000000008a65      0x1f0 build/cooja/mtype398.a(uip-icmp6.o)
                                        0x93a (size before relaxing)
 .debug_str     0x0000000000008c55      0x17e build/cooja/mtype398.a(uip-sr.o)
                                        0x72f (size before relaxing)
 .debug_str     0x0000000000008dd3       0xf6 build/cooja/mtype398.a(uip-packetqueue)
                                        0x359 (size before relaxing)
 .debug_str     0x0000000000008ec9       0xa7 build/cooja/mtype398.a(rpl-nbr-policy.)
                                        0x9cd (size before relaxing)
 .debug_str     0x0000000000008f70      0x291 build/cooja/mtype398.a(rpl-neighbor.o)
                                        0xa43 (size before relaxing)
 .debug_str     0x0000000000009201      0x2d3 build/cooja/mtype398.a(rpl-dag.o)
                                        0xb6b (size before relaxing)
 .debug_str     0x00000000000094d4      0x324 build/cooja/mtype398.a(rpl-timers.o)
                                        0xa37 (size before relaxing)
 .debug_str     0x00000000000097f8      0x1b5 build/cooja/mtype398.a(rpl-ext-header.)
                                        0xf7c (size before relaxing)
 .debug_str     0x00000000000099ad       0xc7 build/cooja/mtype398.a(rpl-mrhof.o)
                                        0x734 (size before relaxing)

.debug_loc
 *(.debug_loc)

.debug_macinfo
 *(.debug_macinfo)

.debug_weaknames
 *(.debug_weaknames)

.debug_funcnames
 *(.debug_funcnames)

.debug_typenames
 *(.debug_typenames)

.debug_varnames
 *(.debug_varnames)

.debug_pubtypes
 *(.debug_pubtypes)

.debug_ranges   0x0000000000000000      0x100
 *(.debug_ranges)
 .debug_ranges  0x0000000000000000       0x18 build/cooja/mtype398.a(etimer.o)
 .debug_ranges  0x0000000000000018       0x30 build/cooja/mtype398.a(csma-output.o)
 .debug_ranges  0x0000000000000048       0x18 build/cooja/mtype398.a(tcpip.o)
 .debug_ranges  0x0000000000000060       0x28 build/cooja/mtype398.a(uip-nd6.o)
 .debug_ranges  0x0000000000000088       0x48 build/cooja/mtype398.a(sicslowpan.o)
 .debug_ranges  0x00000000000000d0       0x30 build/cooja/mtype398.a(nbr-table.o)

.debug_macro
 *(.debug_macro)

.gnu.attributes
 *(.gnu.attributes)

/DISCARD/
 *(.note.GNU-stack)
 *(.gnu_debuglink)
 *(.gnu.lto_*)
OUTPUT(build/cooja/mtype398.cooja elf32-i386)
